(dp0
S't_log'
p1
(lp2
I60000
aI70000
aI80000
aI90000
aI100000
aI110000
aI120000
aI130000
aI140000
aI150000
aI160000
aI170000
aI180000
aI190000
aI200000
aI210000
aI220000
aI230000
aI240000
aI250000
aI260000
aI270000
aI280000
aI290000
aI300000
aI310000
aI320000
aI330000
aI340000
aI350000
aI360000
aI370000
aI380000
aI390000
aI400000
aI410000
aI420000
aI430000
aI440000
aI450000
aI460000
aI470000
aI480000
aI490000
aI500000
aI510000
aI520000
aI530000
aI540000
aI550000
aI560000
aI570000
aI580000
aI590000
aI600000
aI610000
aI620000
aI630000
aI640000
aI650000
aI660000
aI670000
aI680000
aI690000
aI700000
aI710000
aI720000
aI730000
aI740000
aI750000
aI760000
aI770000
aI780000
aI790000
aI800000
aI810000
aI820000
aI830000
aI840000
aI850000
aI860000
aI870000
aI880000
aI890000
aI900000
aI910000
aI920000
aI930000
aI940000
aI950000
aI960000
aI970000
aI980000
aI990000
aI1000000
aI1010000
aI1020000
aI1030000
aI1040000
aI1050000
aI1060000
aI1070000
aI1080000
aI1090000
aI1100000
aI1110000
aI1120000
aI1130000
aI1140000
aI1150000
aI1160000
aI1170000
aI1180000
aI1190000
aI1200000
aI1210000
aI1220000
aI1230000
aI1240000
aI1250000
aI1260000
aI1270000
aI1280000
aI1290000
aI1300000
aI1310000
aI1320000
aI1330000
aI1340000
aI1350000
aI1360000
aI1370000
aI1380000
aI1390000
aI1400000
aI1410000
aI1420000
aI1430000
aI1440000
aI1450000
aI1460000
aI1470000
aI1480000
aI1490000
aI1500000
aI1510000
aI1520000
aI1530000
aI1540000
aI1550000
aI1560000
aI1570000
aI1580000
aI1590000
aI1600000
aI1610000
aI1620000
aI1630000
aI1640000
aI1650000
aI1660000
aI1670000
aI1680000
aI1690000
aI1700000
aI1710000
aI1720000
aI1730000
aI1740000
aI1750000
aI1760000
aI1770000
aI1780000
aI1790000
aI1800000
aI1810000
aI1820000
aI1830000
aI1840000
aI1850000
aI1860000
aI1870000
aI1880000
aI1890000
aI1900000
aI1910000
aI1920000
aI1930000
aI1940000
aI1950000
aI1960000
aI1970000
aI1980000
aI1990000
aI2000000
aI2010000
aI2020000
aI2030000
aI2040000
aI2050000
aI2060000
aI2070000
aI2080000
aI2090000
aI2100000
aI2110000
aI2120000
aI2130000
aI2140000
aI2150000
aI2160000
aI2170000
aI2180000
aI2190000
aI2200000
aI2210000
aI2220000
aI2230000
aI2240000
aI2250000
aI2260000
aI2270000
aI2280000
aI2290000
aI2300000
aI2310000
aI2320000
aI2330000
aI2340000
aI2350000
aI2360000
aI2370000
aI2380000
aI2390000
aI2400000
aI2410000
aI2420000
aI2430000
aI2440000
aI2450000
aI2460000
aI2470000
aI2480000
aI2490000
aI2500000
aI2510000
aI2520000
aI2530000
aI2540000
aI2550000
aI2560000
aI2570000
aI2580000
aI2590000
aI2600000
aI2610000
aI2620000
aI2630000
aI2640000
aI2650000
aI2660000
aI2670000
aI2680000
aI2690000
aI2700000
aI2710000
aI2720000
aI2730000
aI2740000
aI2750000
aI2760000
aI2770000
aI2780000
aI2790000
aI2800000
aI2810000
aI2820000
aI2830000
aI2840000
aI2850000
aI2860000
aI2870000
aI2880000
aI2890000
aI2900000
aI2910000
aI2920000
aI2930000
aI2940000
aI2950000
aI2960000
aI2970000
aI2980000
aI2990000
aI3000000
aI3010000
aI3020000
aI3030000
aI3040000
aI3050000
aI3060000
aI3070000
aI3080000
aI3090000
aI3100000
aI3110000
aI3120000
aI3130000
aI3140000
aI3150000
aI3160000
aI3170000
aI3180000
aI3190000
aI3200000
aI3210000
aI3220000
aI3230000
aI3240000
aI3250000
aI3260000
aI3270000
aI3280000
aI3290000
aI3300000
aI3310000
aI3320000
aI3330000
aI3340000
aI3350000
aI3360000
aI3370000
aI3380000
aI3390000
aI3400000
aI3410000
aI3420000
aI3430000
aI3440000
aI3450000
aI3460000
aI3470000
aI3480000
aI3490000
aI3500000
aI3510000
aI3520000
aI3530000
aI3540000
aI3550000
aI3560000
aI3570000
aI3580000
aI3590000
aI3600000
aI3610000
aI3620000
aI3630000
aI3640000
aI3650000
aI3660000
aI3670000
aI3680000
aI3690000
aI3700000
aI3710000
aI3720000
aI3730000
aI3740000
aI3750000
aI3760000
aI3770000
aI3780000
aI3790000
aI3800000
aI3810000
aI3820000
aI3830000
aI3840000
aI3850000
aI3860000
aI3870000
aI3880000
aI3890000
aI3900000
aI3910000
aI3920000
aI3930000
aI3940000
aI3950000
aI3960000
aI3970000
aI3980000
aI3990000
aI4000000
aI4010000
aI4020000
aI4030000
aI4040000
aI4050000
aI4060000
aI4070000
aI4080000
aI4090000
aI4100000
aI4110000
aI4120000
aI4130000
aI4140000
aI4150000
aI4160000
aI4170000
aI4180000
aI4190000
aI4200000
aI4210000
aI4220000
aI4230000
aI4240000
aI4250000
aI4260000
aI4270000
aI4280000
aI4290000
aI4300000
aI4310000
aI4320000
aI4330000
aI4340000
aI4350000
aI4360000
aI4370000
aI4380000
aI4390000
aI4400000
aI4410000
aI4420000
aI4430000
aI4440000
aI4450000
aI4460000
aI4470000
aI4480000
aI4490000
aI4500000
aI4510000
aI4520000
aI4530000
aI4540000
aI4550000
aI4560000
aI4570000
aI4580000
aI4590000
aI4600000
aI4610000
aI4620000
aI4630000
aI4640000
aI4650000
aI4660000
aI4670000
aI4680000
aI4690000
aI4700000
aI4710000
aI4720000
aI4730000
aI4740000
aI4750000
aI4760000
aI4770000
aI4780000
aI4790000
aI4800000
aI4810000
aI4820000
aI4830000
aI4840000
aI4850000
aI4860000
aI4870000
aI4880000
aI4890000
aI4900000
aI4910000
aI4920000
aI4930000
aI4940000
aI4950000
aI4960000
aI4970000
aI4980000
aI4990000
aI5000000
aI5010000
aI5020000
aI5030000
aI5040000
aI5050000
aI5060000
aI5070000
aI5080000
aI5090000
aI5100000
aI5110000
aI5120000
aI5130000
aI5140000
aI5150000
aI5160000
aI5170000
aI5180000
aI5190000
aI5200000
aI5210000
aI5220000
aI5230000
aI5240000
aI5250000
aI5260000
aI5270000
aI5280000
aI5290000
aI5300000
aI5310000
aI5320000
aI5330000
aI5340000
aI5350000
aI5360000
aI5370000
aI5380000
aI5390000
aI5400000
aI5410000
aI5420000
aI5430000
aI5440000
aI5450000
aI5460000
aI5470000
aI5480000
aI5490000
aI5500000
aI5510000
aI5520000
aI5530000
aI5540000
aI5550000
aI5560000
aI5570000
aI5580000
aI5590000
aI5600000
aI5610000
aI5620000
aI5630000
aI5640000
aI5650000
aI5660000
aI5670000
aI5680000
aI5690000
aI5700000
aI5710000
aI5720000
aI5730000
aI5740000
aI5750000
aI5760000
aI5770000
aI5780000
aI5790000
aI5800000
aI5810000
aI5820000
aI5830000
aI5840000
aI5850000
aI5860000
aI5870000
aI5880000
aI5890000
aI5900000
aI5910000
aI5920000
aI5930000
aI5940000
aI5950000
aI5960000
aI5970000
aI5980000
aI5990000
aI6000000
aI6010000
aI6020000
aI6030000
aI6040000
aI6050000
aI6060000
aI6070000
aI6080000
aI6090000
aI6100000
aI6110000
aI6120000
aI6130000
aI6140000
aI6150000
aI6160000
aI6170000
aI6180000
aI6190000
aI6200000
asS'mean_reward_log'
p3
(lp4
cnumpy.core.multiarray
scalar
p5
(cnumpy
dtype
p6
(S'f8'
p7
I0
I1
tp8
Rp9
(I3
S'<'
p10
NNNI-1
I-1
I0
tp11
bS'\xf6(\\\x8f\xc2\xb54\xc0'
p12
tp13
Rp14
ag5
(g9
S'R\xb8\x1e\x85\xeb\xd14\xc0'
p15
tp16
Rp17
ag5
(g9
S'\\\x8f\xc2\xf5(\xdc4\xc0'
p18
tp19
Rp20
ag5
(g9
S'H\xe1z\x14\xae\xc74\xc0'
p21
tp22
Rp23
ag5
(g9
S'=\n\xd7\xa3p\xbd4\xc0'
p24
tp25
Rp26
ag5
(g9
S'\xc3\xf5(\\\x8f\xc24\xc0'
p27
tp28
Rp29
ag5
(g9
S'\x14\xaeG\xe1z\xd44\xc0'
p30
tp31
Rp32
ag5
(g9
S'\n\xd7\xa3p=\xca4\xc0'
p33
tp34
Rp35
ag5
(g9
S'\xc3\xf5(\\\x8f\xc24\xc0'
p36
tp37
Rp38
ag5
(g9
S'\xc3\xf5(\\\x8f\xc24\xc0'
p39
tp40
Rp41
ag5
(g9
S'H\xe1z\x14\xae\xc74\xc0'
p42
tp43
Rp44
ag5
(g9
S'\xd7\xa3p=\n\xd74\xc0'
p45
tp46
Rp47
ag5
(g9
S'\xe1z\x14\xaeG\xe14\xc0'
p48
tp49
Rp50
ag5
(g9
S'\xa4p=\n\xd7\xe34\xc0'
p51
tp52
Rp53
ag5
(g9
S'\xe1z\x14\xaeG\xe14\xc0'
p54
tp55
Rp56
ag5
(g9
S'\x1f\x85\xebQ\xb8\xde4\xc0'
p57
tp58
Rp59
ag5
(g9
S'\xe1z\x14\xaeG\xe14\xc0'
p60
tp61
Rp62
ag5
(g9
S'\x1f\x85\xebQ\xb8\xde4\xc0'
p63
tp64
Rp65
ag5
(g9
S'\xa4p=\n\xd7\xe34\xc0'
p66
tp67
Rp68
ag5
(g9
S'\xa4p=\n\xd7\xe34\xc0'
p69
tp70
Rp71
ag5
(g9
S'\x14\xaeG\xe1z\xd44\xc0'
p72
tp73
Rp74
ag5
(g9
S'\xd7\xa3p=\n\xd74\xc0'
p75
tp76
Rp77
ag5
(g9
S'\n\xd7\xa3p=\xca4\xc0'
p78
tp79
Rp80
ag5
(g9
S'\xc3\xf5(\\\x8f\xc24\xc0'
p81
tp82
Rp83
ag5
(g9
S'\n\xd7\xa3p=\xca4\xc0'
p84
tp85
Rp86
ag5
(g9
S'\\\x8f\xc2\xf5(\xdc4\xc0'
p87
tp88
Rp89
ag5
(g9
S'\x8f\xc2\xf5(\\\xcf4\xc0'
p90
tp91
Rp92
ag5
(g9
S'R\xb8\x1e\x85\xeb\xd14\xc0'
p93
tp94
Rp95
ag5
(g9
S'\x1f\x85\xebQ\xb8\xde4\xc0'
p96
tp97
Rp98
ag5
(g9
S'\x9a\x99\x99\x99\x99\xd94\xc0'
p99
tp100
Rp101
ag5
(g9
S'\x14\xaeG\xe1z\xd44\xc0'
p102
tp103
Rp104
ag5
(g9
S'\x00\x00\x00\x00\x00\xc04\xc0'
p105
tp106
Rp107
ag5
(g9
S'H\xe1z\x14\xae\xc74\xc0'
p108
tp109
Rp110
ag5
(g9
S'\x00\x00\x00\x00\x00\xc04\xc0'
p111
tp112
Rp113
ag5
(g9
S'H\xe1z\x14\xae\xc74\xc0'
p114
tp115
Rp116
ag5
(g9
S'\x00\x00\x00\x00\x00\xc04\xc0'
p117
tp118
Rp119
ag5
(g9
S'\xe1z\x14\xaeG\xe14\xc0'
p120
tp121
Rp122
ag5
(g9
S'\x14\xaeG\xe1z\xd44\xc0'
p123
tp124
Rp125
ag5
(g9
S'\xcd\xcc\xcc\xcc\xcc\xcc4\xc0'
p126
tp127
Rp128
ag5
(g9
S'\x85\xebQ\xb8\x1e\xc54\xc0'
p129
tp130
Rp131
ag5
(g9
S'\n\xd7\xa3p=\xca4\xc0'
p132
tp133
Rp134
ag5
(g9
S'fffff\xe64\xc0'
p135
tp136
Rp137
ag5
(g9
S')\\\x8f\xc2\xf5\xe84\xc0'
p138
tp139
Rp140
ag5
(g9
S'\xa4p=\n\xd7\xe34\xc0'
p141
tp142
Rp143
ag5
(g9
S'\xd7\xa3p=\n\xd74\xc0'
p144
tp145
Rp146
ag5
(g9
S'\x14\xaeG\xe1z\xd44\xc0'
p147
tp148
Rp149
ag5
(g9
S'\x1f\x85\xebQ\xb8\xde4\xc0'
p150
tp151
Rp152
ag5
(g9
S'\xe1z\x14\xaeG\xe14\xc0'
p153
tp154
Rp155
ag5
(g9
S'fffff\xe64\xc0'
p156
tp157
Rp158
ag5
(g9
S'\xa4p=\n\xd7\xe34\xc0'
p159
tp160
Rp161
ag5
(g9
S'\xa4p=\n\xd7\xe34\xc0'
p162
tp163
Rp164
ag5
(g9
S'\x1f\x85\xebQ\xb8\xde4\xc0'
p165
tp166
Rp167
ag5
(g9
S'\x1f\x85\xebQ\xb8\xde4\xc0'
p168
tp169
Rp170
ag5
(g9
S'\x9a\x99\x99\x99\x99\xd94\xc0'
p171
tp172
Rp173
ag5
(g9
S'\n\xd7\xa3p=\xca4\xc0'
p174
tp175
Rp176
ag5
(g9
S'\n\xd7\xa3p=\xca4\xc0'
p177
tp178
Rp179
ag5
(g9
S'\n\xd7\xa3p=\xca4\xc0'
p180
tp181
Rp182
ag5
(g9
S'H\xe1z\x14\xae\xc74\xc0'
p183
tp184
Rp185
ag5
(g9
S'{\x14\xaeG\xe1\xba4\xc0'
p186
tp187
Rp188
ag5
(g9
S'\x85\xebQ\xb8\x1e\xc54\xc0'
p189
tp190
Rp191
ag5
(g9
S'\xd7\xa3p=\n\xd74\xc0'
p192
tp193
Rp194
ag5
(g9
S')\\\x8f\xc2\xf5\xe84\xc0'
p195
tp196
Rp197
ag5
(g9
S'\\\x8f\xc2\xf5(\xdc4\xc0'
p198
tp199
Rp200
ag5
(g9
S'\xd7\xa3p=\n\xd74\xc0'
p201
tp202
Rp203
ag5
(g9
S'\x14\xaeG\xe1z\xd44\xc0'
p204
tp205
Rp206
ag5
(g9
S'\xd7\xa3p=\n\xd74\xc0'
p207
tp208
Rp209
ag5
(g9
S'\x1f\x85\xebQ\xb8\xde4\xc0'
p210
tp211
Rp212
ag5
(g9
S'\x1f\x85\xebQ\xb8\xde4\xc0'
p213
tp214
Rp215
ag5
(g9
S'\\\x8f\xc2\xf5(\xdc4\xc0'
p216
tp217
Rp218
ag5
(g9
S'\\\x8f\xc2\xf5(\xdc4\xc0'
p219
tp220
Rp221
ag5
(g9
S'\xd7\xa3p=\n\xd74\xc0'
p222
tp223
Rp224
ag5
(g9
S'\xd7\xa3p=\n\xd74\xc0'
p225
tp226
Rp227
ag5
(g9
S'\n\xd7\xa3p=\xca4\xc0'
p228
tp229
Rp230
ag5
(g9
S'\n\xd7\xa3p=\xca4\xc0'
p231
tp232
Rp233
ag5
(g9
S'\n\xd7\xa3p=\xca4\xc0'
p234
tp235
Rp236
ag5
(g9
S'\x1f\x85\xebQ\xb8\xde4\xc0'
p237
tp238
Rp239
ag5
(g9
S'\\\x8f\xc2\xf5(\xdc4\xc0'
p240
tp241
Rp242
ag5
(g9
S'\xecQ\xb8\x1e\x85\xeb4\xc0'
p243
tp244
Rp245
ag5
(g9
S'q=\n\xd7\xa3\xf04\xc0'
p246
tp247
Rp248
ag5
(g9
S'fffff\xe64\xc0'
p249
tp250
Rp251
ag5
(g9
S')\\\x8f\xc2\xf5\xe84\xc0'
p252
tp253
Rp254
ag5
(g9
S'\xaeG\xe1z\x14\xee4\xc0'
p255
tp256
Rp257
ag5
(g9
S'fffff\xe64\xc0'
p258
tp259
Rp260
ag5
(g9
S'\xa4p=\n\xd7\xe34\xc0'
p261
tp262
Rp263
ag5
(g9
S'\xaeG\xe1z\x14\xee4\xc0'
p264
tp265
Rp266
ag5
(g9
S'\xa4p=\n\xd7\xe34\xc0'
p267
tp268
Rp269
ag5
(g9
S')\\\x8f\xc2\xf5\xe84\xc0'
p270
tp271
Rp272
ag5
(g9
S'33333\xf34\xc0'
p273
tp274
Rp275
ag5
(g9
S'\xb8\x1e\x85\xebQ\xf84\xc0'
p276
tp277
Rp278
ag5
(g9
S'q=\n\xd7\xa3\xf04\xc0'
p279
tp280
Rp281
ag5
(g9
S'fffff\xe64\xc0'
p282
tp283
Rp284
ag5
(g9
S'\x1f\x85\xebQ\xb8\xde4\xc0'
p285
tp286
Rp287
ag5
(g9
S'\xd7\xa3p=\n\xd74\xc0'
p288
tp289
Rp290
ag5
(g9
S'\x1f\x85\xebQ\xb8\xde4\xc0'
p291
tp292
Rp293
ag5
(g9
S'fffff\xe64\xc0'
p294
tp295
Rp296
ag5
(g9
S'\x1f\x85\xebQ\xb8\xde4\xc0'
p297
tp298
Rp299
ag5
(g9
S'\\\x8f\xc2\xf5(\xdc4\xc0'
p300
tp301
Rp302
ag5
(g9
S'\xa4p=\n\xd7\xe34\xc0'
p303
tp304
Rp305
ag5
(g9
S'\n\xd7\xa3p=\xca4\xc0'
p306
tp307
Rp308
ag5
(g9
S'H\xe1z\x14\xae\xc74\xc0'
p309
tp310
Rp311
ag5
(g9
S'\x8f\xc2\xf5(\\\xcf4\xc0'
p312
tp313
Rp314
ag5
(g9
S'33333\xf34\xc0'
p315
tp316
Rp317
ag5
(g9
S'\xaeG\xe1z\x14\xee4\xc0'
p318
tp319
Rp320
ag5
(g9
S'\x1f\x85\xebQ\xb8\xde4\xc0'
p321
tp322
Rp323
ag5
(g9
S'\xcd\xcc\xcc\xcc\xcc\xcc4\xc0'
p324
tp325
Rp326
ag5
(g9
S'R\xb8\x1e\x85\xeb\xd14\xc0'
p327
tp328
Rp329
ag5
(g9
S'fffff\xe64\xc0'
p330
tp331
Rp332
ag5
(g9
S'fffff\xe64\xc0'
p333
tp334
Rp335
ag5
(g9
S'\x1f\x85\xebQ\xb8\xde4\xc0'
p336
tp337
Rp338
ag5
(g9
S'fffff\xe64\xc0'
p339
tp340
Rp341
ag5
(g9
S'\xaeG\xe1z\x14\xee4\xc0'
p342
tp343
Rp344
ag5
(g9
S'\xecQ\xb8\x1e\x85\xeb4\xc0'
p345
tp346
Rp347
ag5
(g9
S'\xecQ\xb8\x1e\x85\xeb4\xc0'
p348
tp349
Rp350
ag5
(g9
S'\x1f\x85\xebQ\xb8\xde4\xc0'
p351
tp352
Rp353
ag5
(g9
S'\xa4p=\n\xd7\xe34\xc0'
p354
tp355
Rp356
ag5
(g9
S'\x1f\x85\xebQ\xb8\xde4\xc0'
p357
tp358
Rp359
ag5
(g9
S'\x9a\x99\x99\x99\x99\xd94\xc0'
p360
tp361
Rp362
ag5
(g9
S'\\\x8f\xc2\xf5(\xdc4\xc0'
p363
tp364
Rp365
ag5
(g9
S'\xecQ\xb8\x1e\x85\xeb4\xc0'
p366
tp367
Rp368
ag5
(g9
S')\\\x8f\xc2\xf5\xe84\xc0'
p369
tp370
Rp371
ag5
(g9
S'\\\x8f\xc2\xf5(\xdc4\xc0'
p372
tp373
Rp374
ag5
(g9
S'\x9a\x99\x99\x99\x99\xd94\xc0'
p375
tp376
Rp377
ag5
(g9
S'\xe1z\x14\xaeG\xe14\xc0'
p378
tp379
Rp380
ag5
(g9
S'\x14\xaeG\xe1z\xd44\xc0'
p381
tp382
Rp383
ag5
(g9
S'\xe1z\x14\xaeG\xe14\xc0'
p384
tp385
Rp386
ag5
(g9
S'\xe1z\x14\xaeG\xe14\xc0'
p387
tp388
Rp389
ag5
(g9
S')\\\x8f\xc2\xf5\xe84\xc0'
p390
tp391
Rp392
ag5
(g9
S'fffff\xe64\xc0'
p393
tp394
Rp395
ag5
(g9
S'\xe1z\x14\xaeG\xe14\xc0'
p396
tp397
Rp398
ag5
(g9
S'\xe1z\x14\xaeG\xe14\xc0'
p399
tp400
Rp401
ag5
(g9
S'\xd7\xa3p=\n\xd74\xc0'
p402
tp403
Rp404
ag5
(g9
S'\\\x8f\xc2\xf5(\xdc4\xc0'
p405
tp406
Rp407
ag5
(g9
S'\\\x8f\xc2\xf5(\xdc4\xc0'
p408
tp409
Rp410
ag5
(g9
S'\xa4p=\n\xd7\xe34\xc0'
p411
tp412
Rp413
ag5
(g9
S'\xd7\xa3p=\n\xd74\xc0'
p414
tp415
Rp416
ag5
(g9
S'\xcd\xcc\xcc\xcc\xcc\xcc4\xc0'
p417
tp418
Rp419
ag5
(g9
S'\x9a\x99\x99\x99\x99\xd94\xc0'
p420
tp421
Rp422
ag5
(g9
S'\xe1z\x14\xaeG\xe14\xc0'
p423
tp424
Rp425
ag5
(g9
S'q=\n\xd7\xa3\xf04\xc0'
p426
tp427
Rp428
ag5
(g9
S'\xecQ\xb8\x1e\x85\xeb4\xc0'
p429
tp430
Rp431
ag5
(g9
S'q=\n\xd7\xa3\xf04\xc0'
p432
tp433
Rp434
ag5
(g9
S'\xf6(\\\x8f\xc2\xf54\xc0'
p435
tp436
Rp437
ag5
(g9
S'q=\n\xd7\xa3\xf04\xc0'
p438
tp439
Rp440
ag5
(g9
S'\xaeG\xe1z\x14\xee4\xc0'
p441
tp442
Rp443
ag5
(g9
S'q=\n\xd7\xa3\xf04\xc0'
p444
tp445
Rp446
ag5
(g9
S'fffff\xe64\xc0'
p447
tp448
Rp449
ag5
(g9
S')\\\x8f\xc2\xf5\xe84\xc0'
p450
tp451
Rp452
ag5
(g9
S'\xaeG\xe1z\x14\xee4\xc0'
p453
tp454
Rp455
ag5
(g9
S'\xf6(\\\x8f\xc2\xf54\xc0'
p456
tp457
Rp458
ag5
(g9
S'q=\n\xd7\xa3\xf04\xc0'
p459
tp460
Rp461
ag5
(g9
S'\xf6(\\\x8f\xc2\xf54\xc0'
p462
tp463
Rp464
ag5
(g9
S')\\\x8f\xc2\xf5\xe84\xc0'
p465
tp466
Rp467
ag5
(g9
S'\xecQ\xb8\x1e\x85\xeb4\xc0'
p468
tp469
Rp470
ag5
(g9
S')\\\x8f\xc2\xf5\xe84\xc0'
p471
tp472
Rp473
ag5
(g9
S'33333\xf34\xc0'
p474
tp475
Rp476
ag5
(g9
S'\xecQ\xb8\x1e\x85\xeb4\xc0'
p477
tp478
Rp479
ag5
(g9
S'\xecQ\xb8\x1e\x85\xeb4\xc0'
p480
tp481
Rp482
ag5
(g9
S'q=\n\xd7\xa3\xf04\xc0'
p483
tp484
Rp485
ag5
(g9
S'33333\xf34\xc0'
p486
tp487
Rp488
ag5
(g9
S'q=\n\xd7\xa3\xf04\xc0'
p489
tp490
Rp491
ag5
(g9
S'\xa4p=\n\xd7\xe34\xc0'
p492
tp493
Rp494
ag5
(g9
S'\xcd\xcc\xcc\xcc\xcc\xcc4\xc0'
p495
tp496
Rp497
ag5
(g9
S'\x8f\xc2\xf5(\\\xcf4\xc0'
p498
tp499
Rp500
ag5
(g9
S'\x1f\x85\xebQ\xb8\xde4\xc0'
p501
tp502
Rp503
ag5
(g9
S')\\\x8f\xc2\xf5\xe84\xc0'
p504
tp505
Rp506
ag5
(g9
S'\xd7\xa3p=\n\xd74\xc0'
p507
tp508
Rp509
ag5
(g9
S'fffff\xe64\xc0'
p510
tp511
Rp512
ag5
(g9
S'\xb8\x1e\x85\xebQ\xf84\xc0'
p513
tp514
Rp515
ag5
(g9
S'=\n\xd7\xa3p\xfd4\xc0'
p516
tp517
Rp518
ag5
(g9
S'=\n\xd7\xa3p\xfd4\xc0'
p519
tp520
Rp521
ag5
(g9
S'33333\xf34\xc0'
p522
tp523
Rp524
ag5
(g9
S'\xaeG\xe1z\x14\xee4\xc0'
p525
tp526
Rp527
ag5
(g9
S'\xecQ\xb8\x1e\x85\xeb4\xc0'
p528
tp529
Rp530
ag5
(g9
S'\xaeG\xe1z\x14\xee4\xc0'
p531
tp532
Rp533
ag5
(g9
S'33333\xf34\xc0'
p534
tp535
Rp536
ag5
(g9
S'\xecQ\xb8\x1e\x85\xeb4\xc0'
p537
tp538
Rp539
ag5
(g9
S'\xa4p=\n\xd7\xe34\xc0'
p540
tp541
Rp542
ag5
(g9
S'\xe1z\x14\xaeG\xe14\xc0'
p543
tp544
Rp545
ag5
(g9
S'\xa4p=\n\xd7\xe34\xc0'
p546
tp547
Rp548
ag5
(g9
S'\xecQ\xb8\x1e\x85\xeb4\xc0'
p549
tp550
Rp551
ag5
(g9
S')\\\x8f\xc2\xf5\xe84\xc0'
p552
tp553
Rp554
ag5
(g9
S'\xecQ\xb8\x1e\x85\xeb4\xc0'
p555
tp556
Rp557
ag5
(g9
S'\x1f\x85\xebQ\xb8\xde4\xc0'
p558
tp559
Rp560
ag5
(g9
S'\x1f\x85\xebQ\xb8\xde4\xc0'
p561
tp562
Rp563
ag5
(g9
S'\xa4p=\n\xd7\xe34\xc0'
p564
tp565
Rp566
ag5
(g9
S')\\\x8f\xc2\xf5\xe84\xc0'
p567
tp568
Rp569
ag5
(g9
S'33333\xf34\xc0'
p570
tp571
Rp572
ag5
(g9
S'\xf6(\\\x8f\xc2\xf54\xc0'
p573
tp574
Rp575
ag5
(g9
S'\xaeG\xe1z\x14\xee4\xc0'
p576
tp577
Rp578
ag5
(g9
S'\xaeG\xe1z\x14\xee4\xc0'
p579
tp580
Rp581
ag5
(g9
S'q=\n\xd7\xa3\xf04\xc0'
p582
tp583
Rp584
ag5
(g9
S'33333\xf34\xc0'
p585
tp586
Rp587
ag5
(g9
S'33333\xf34\xc0'
p588
tp589
Rp590
ag5
(g9
S'\xb8\x1e\x85\xebQ\xf84\xc0'
p591
tp592
Rp593
ag5
(g9
S'\xecQ\xb8\x1e\x85\xeb4\xc0'
p594
tp595
Rp596
ag5
(g9
S'\xe1z\x14\xaeG\xe14\xc0'
p597
tp598
Rp599
ag5
(g9
S'\x9a\x99\x99\x99\x99\xd94\xc0'
p600
tp601
Rp602
ag5
(g9
S'\xe1z\x14\xaeG\xe14\xc0'
p603
tp604
Rp605
ag5
(g9
S'fffff\xe64\xc0'
p606
tp607
Rp608
ag5
(g9
S'fffff\xe64\xc0'
p609
tp610
Rp611
ag5
(g9
S'fffff\xe64\xc0'
p612
tp613
Rp614
ag5
(g9
S'\xecQ\xb8\x1e\x85\xeb4\xc0'
p615
tp616
Rp617
ag5
(g9
S'\xa4p=\n\xd7\xe34\xc0'
p618
tp619
Rp620
ag5
(g9
S'\xecQ\xb8\x1e\x85\xeb4\xc0'
p621
tp622
Rp623
ag5
(g9
S')\\\x8f\xc2\xf5\xe84\xc0'
p624
tp625
Rp626
ag5
(g9
S')\\\x8f\xc2\xf5\xe84\xc0'
p627
tp628
Rp629
ag5
(g9
S'\xecQ\xb8\x1e\x85\xeb4\xc0'
p630
tp631
Rp632
ag5
(g9
S'\xe1z\x14\xaeG\xe14\xc0'
p633
tp634
Rp635
ag5
(g9
S'\xe1z\x14\xaeG\xe14\xc0'
p636
tp637
Rp638
ag5
(g9
S'\xa4p=\n\xd7\xe34\xc0'
p639
tp640
Rp641
ag5
(g9
S'\xa4p=\n\xd7\xe34\xc0'
p642
tp643
Rp644
ag5
(g9
S'fffff\xe64\xc0'
p645
tp646
Rp647
ag5
(g9
S'\xa4p=\n\xd7\xe34\xc0'
p648
tp649
Rp650
ag5
(g9
S'\xecQ\xb8\x1e\x85\xeb4\xc0'
p651
tp652
Rp653
ag5
(g9
S'q=\n\xd7\xa3\xf04\xc0'
p654
tp655
Rp656
ag5
(g9
S'\xf6(\\\x8f\xc2\xf54\xc0'
p657
tp658
Rp659
ag5
(g9
S'\xb8\x1e\x85\xebQ\xf84\xc0'
p660
tp661
Rp662
ag5
(g9
S'q=\n\xd7\xa3\xf04\xc0'
p663
tp664
Rp665
ag5
(g9
S'q=\n\xd7\xa3\xf04\xc0'
p666
tp667
Rp668
ag5
(g9
S'33333\xf34\xc0'
p669
tp670
Rp671
ag5
(g9
S'33333\xf34\xc0'
p672
tp673
Rp674
ag5
(g9
S'33333\xf34\xc0'
p675
tp676
Rp677
ag5
(g9
S'\x1f\x85\xebQ\xb8\xde4\xc0'
p678
tp679
Rp680
ag5
(g9
S'\xa4p=\n\xd7\xe34\xc0'
p681
tp682
Rp683
ag5
(g9
S'\xe1z\x14\xaeG\xe14\xc0'
p684
tp685
Rp686
ag5
(g9
S'\x1f\x85\xebQ\xb8\xde4\xc0'
p687
tp688
Rp689
ag5
(g9
S'\\\x8f\xc2\xf5(\xdc4\xc0'
p690
tp691
Rp692
ag5
(g9
S'\x1f\x85\xebQ\xb8\xde4\xc0'
p693
tp694
Rp695
ag5
(g9
S'\x1f\x85\xebQ\xb8\xde4\xc0'
p696
tp697
Rp698
ag5
(g9
S'\xe1z\x14\xaeG\xe14\xc0'
p699
tp700
Rp701
ag5
(g9
S')\\\x8f\xc2\xf5\xe84\xc0'
p702
tp703
Rp704
ag5
(g9
S'\xecQ\xb8\x1e\x85\xeb4\xc0'
p705
tp706
Rp707
ag5
(g9
S'\xaeG\xe1z\x14\xee4\xc0'
p708
tp709
Rp710
ag5
(g9
S'q=\n\xd7\xa3\xf04\xc0'
p711
tp712
Rp713
ag5
(g9
S'\xf6(\\\x8f\xc2\xf54\xc0'
p714
tp715
Rp716
ag5
(g9
S'=\n\xd7\xa3p\xfd4\xc0'
p717
tp718
Rp719
ag5
(g9
S'\xb8\x1e\x85\xebQ\xf84\xc0'
p720
tp721
Rp722
ag5
(g9
S'\xecQ\xb8\x1e\x85\xeb4\xc0'
p723
tp724
Rp725
ag5
(g9
S'\xe1z\x14\xaeG\xe14\xc0'
p726
tp727
Rp728
ag5
(g9
S'fffff\xe64\xc0'
p729
tp730
Rp731
ag5
(g9
S'\x1f\x85\xebQ\xb8\xde4\xc0'
p732
tp733
Rp734
ag5
(g9
S'\xe1z\x14\xaeG\xe14\xc0'
p735
tp736
Rp737
ag5
(g9
S'fffff\xe64\xc0'
p738
tp739
Rp740
ag5
(g9
S'\xf6(\\\x8f\xc2\xf54\xc0'
p741
tp742
Rp743
ag5
(g9
S'\xecQ\xb8\x1e\x85\xeb4\xc0'
p744
tp745
Rp746
ag5
(g9
S'fffff\xe64\xc0'
p747
tp748
Rp749
ag5
(g9
S'\xecQ\xb8\x1e\x85\xeb4\xc0'
p750
tp751
Rp752
ag5
(g9
S'\xaeG\xe1z\x14\xee4\xc0'
p753
tp754
Rp755
ag5
(g9
S')\\\x8f\xc2\xf5\xe84\xc0'
p756
tp757
Rp758
ag5
(g9
S'q=\n\xd7\xa3\xf04\xc0'
p759
tp760
Rp761
ag5
(g9
S'\xaeG\xe1z\x14\xee4\xc0'
p762
tp763
Rp764
ag5
(g9
S')\\\x8f\xc2\xf5\xe84\xc0'
p765
tp766
Rp767
ag5
(g9
S'\xaeG\xe1z\x14\xee4\xc0'
p768
tp769
Rp770
ag5
(g9
S'{\x14\xaeG\xe1\xfa4\xc0'
p771
tp772
Rp773
ag5
(g9
S'33333\xf34\xc0'
p774
tp775
Rp776
ag5
(g9
S'\xecQ\xb8\x1e\x85\xeb4\xc0'
p777
tp778
Rp779
ag5
(g9
S'fffff\xe64\xc0'
p780
tp781
Rp782
ag5
(g9
S'\xe1z\x14\xaeG\xe14\xc0'
p783
tp784
Rp785
ag5
(g9
S')\\\x8f\xc2\xf5\xe84\xc0'
p786
tp787
Rp788
ag5
(g9
S'\xaeG\xe1z\x14\xee4\xc0'
p789
tp790
Rp791
ag5
(g9
S'33333\xf34\xc0'
p792
tp793
Rp794
ag5
(g9
S'q=\n\xd7\xa3\xf04\xc0'
p795
tp796
Rp797
ag5
(g9
S'\xaeG\xe1z\x14\xee4\xc0'
p798
tp799
Rp800
ag5
(g9
S'\xaeG\xe1z\x14\xee4\xc0'
p801
tp802
Rp803
ag5
(g9
S'\xf6(\\\x8f\xc2\xf54\xc0'
p804
tp805
Rp806
ag5
(g9
S'\xb8\x1e\x85\xebQ\xf84\xc0'
p807
tp808
Rp809
ag5
(g9
S'\xb8\x1e\x85\xebQ\xf84\xc0'
p810
tp811
Rp812
ag5
(g9
S'\xf6(\\\x8f\xc2\xf54\xc0'
p813
tp814
Rp815
ag5
(g9
S'{\x14\xaeG\xe1\xfa4\xc0'
p816
tp817
Rp818
ag5
(g9
S'\xb8\x1e\x85\xebQ\xf84\xc0'
p819
tp820
Rp821
ag5
(g9
S'{\x14\xaeG\xe1\xfa4\xc0'
p822
tp823
Rp824
ag5
(g9
S'\xf6(\\\x8f\xc2\xf54\xc0'
p825
tp826
Rp827
ag5
(g9
S'33333\xf34\xc0'
p828
tp829
Rp830
ag5
(g9
S'\xecQ\xb8\x1e\x85\xeb4\xc0'
p831
tp832
Rp833
ag5
(g9
S'\xaeG\xe1z\x14\xee4\xc0'
p834
tp835
Rp836
ag5
(g9
S'\xaeG\xe1z\x14\xee4\xc0'
p837
tp838
Rp839
ag5
(g9
S'\xecQ\xb8\x1e\x85\xeb4\xc0'
p840
tp841
Rp842
ag5
(g9
S'\xe1z\x14\xaeG\xe14\xc0'
p843
tp844
Rp845
ag5
(g9
S'\xecQ\xb8\x1e\x85\xeb4\xc0'
p846
tp847
Rp848
ag5
(g9
S'33333\xf34\xc0'
p849
tp850
Rp851
ag5
(g9
S'\xaeG\xe1z\x14\xee4\xc0'
p852
tp853
Rp854
ag5
(g9
S'\xe1z\x14\xaeG\xe14\xc0'
p855
tp856
Rp857
ag5
(g9
S'\xa4p=\n\xd7\xe34\xc0'
p858
tp859
Rp860
ag5
(g9
S'\xaeG\xe1z\x14\xee4\xc0'
p861
tp862
Rp863
ag5
(g9
S'\xaeG\xe1z\x14\xee4\xc0'
p864
tp865
Rp866
ag5
(g9
S'q=\n\xd7\xa3\xf04\xc0'
p867
tp868
Rp869
ag5
(g9
S'fffff\xe64\xc0'
p870
tp871
Rp872
ag5
(g9
S')\\\x8f\xc2\xf5\xe84\xc0'
p873
tp874
Rp875
ag5
(g9
S')\\\x8f\xc2\xf5\xe84\xc0'
p876
tp877
Rp878
ag5
(g9
S'fffff\xe64\xc0'
p879
tp880
Rp881
ag5
(g9
S'q=\n\xd7\xa3\xf04\xc0'
p882
tp883
Rp884
ag5
(g9
S'\xaeG\xe1z\x14\xee4\xc0'
p885
tp886
Rp887
ag5
(g9
S'33333\xf34\xc0'
p888
tp889
Rp890
ag5
(g9
S'\xecQ\xb8\x1e\x85\xeb4\xc0'
p891
tp892
Rp893
ag5
(g9
S'\xecQ\xb8\x1e\x85\xeb4\xc0'
p894
tp895
Rp896
ag5
(g9
S'fffff\xe64\xc0'
p897
tp898
Rp899
ag5
(g9
S'\xa4p=\n\xd7\xe34\xc0'
p900
tp901
Rp902
ag5
(g9
S'\xe1z\x14\xaeG\xe14\xc0'
p903
tp904
Rp905
ag5
(g9
S'\xa4p=\n\xd7\xe34\xc0'
p906
tp907
Rp908
ag5
(g9
S'\xecQ\xb8\x1e\x85\xeb4\xc0'
p909
tp910
Rp911
ag5
(g9
S'q=\n\xd7\xa3\xf04\xc0'
p912
tp913
Rp914
ag5
(g9
S')\\\x8f\xc2\xf5\xe84\xc0'
p915
tp916
Rp917
ag5
(g9
S'fffff\xe64\xc0'
p918
tp919
Rp920
ag5
(g9
S'\xaeG\xe1z\x14\xee4\xc0'
p921
tp922
Rp923
ag5
(g9
S'=\n\xd7\xa3p\xfd4\xc0'
p924
tp925
Rp926
ag5
(g9
S'\xb8\x1e\x85\xebQ\xf84\xc0'
p927
tp928
Rp929
ag5
(g9
S'q=\n\xd7\xa3\xf04\xc0'
p930
tp931
Rp932
ag5
(g9
S'\xecQ\xb8\x1e\x85\xeb4\xc0'
p933
tp934
Rp935
ag5
(g9
S'q=\n\xd7\xa3\xf04\xc0'
p936
tp937
Rp938
ag5
(g9
S'33333\xf34\xc0'
p939
tp940
Rp941
ag5
(g9
S'\xf6(\\\x8f\xc2\xf54\xc0'
p942
tp943
Rp944
ag5
(g9
S')\\\x8f\xc2\xf5\xe84\xc0'
p945
tp946
Rp947
ag5
(g9
S'fffff\xe64\xc0'
p948
tp949
Rp950
ag5
(g9
S'\xb8\x1e\x85\xebQ\xf84\xc0'
p951
tp952
Rp953
ag5
(g9
S'33333\xf34\xc0'
p954
tp955
Rp956
ag5
(g9
S'q=\n\xd7\xa3\xf04\xc0'
p957
tp958
Rp959
ag5
(g9
S'\xecQ\xb8\x1e\x85\xeb4\xc0'
p960
tp961
Rp962
ag5
(g9
S'q=\n\xd7\xa3\xf04\xc0'
p963
tp964
Rp965
ag5
(g9
S'q=\n\xd7\xa3\xf04\xc0'
p966
tp967
Rp968
ag5
(g9
S'\xecQ\xb8\x1e\x85\xeb4\xc0'
p969
tp970
Rp971
ag5
(g9
S'\xecQ\xb8\x1e\x85\xeb4\xc0'
p972
tp973
Rp974
ag5
(g9
S'\xaeG\xe1z\x14\xee4\xc0'
p975
tp976
Rp977
ag5
(g9
S'{\x14\xaeG\xe1\xfa4\xc0'
p978
tp979
Rp980
ag5
(g9
S'\xb8\x1e\x85\xebQ\xf84\xc0'
p981
tp982
Rp983
ag5
(g9
S'=\n\xd7\xa3p\xfd4\xc0'
p984
tp985
Rp986
ag5
(g9
S'=\n\xd7\xa3p\xfd4\xc0'
p987
tp988
Rp989
ag5
(g9
S'\xb8\x1e\x85\xebQ\xf84\xc0'
p990
tp991
Rp992
ag5
(g9
S'\xaeG\xe1z\x14\xee4\xc0'
p993
tp994
Rp995
ag5
(g9
S'\xa4p=\n\xd7\xe34\xc0'
p996
tp997
Rp998
ag5
(g9
S'\xaeG\xe1z\x14\xee4\xc0'
p999
tp1000
Rp1001
ag5
(g9
S'q=\n\xd7\xa3\xf04\xc0'
p1002
tp1003
Rp1004
ag5
(g9
S'q=\n\xd7\xa3\xf04\xc0'
p1005
tp1006
Rp1007
ag5
(g9
S')\\\x8f\xc2\xf5\xe84\xc0'
p1008
tp1009
Rp1010
ag5
(g9
S'\xecQ\xb8\x1e\x85\xeb4\xc0'
p1011
tp1012
Rp1013
ag5
(g9
S'33333\xf34\xc0'
p1014
tp1015
Rp1016
ag5
(g9
S'{\x14\xaeG\xe1\xfa4\xc0'
p1017
tp1018
Rp1019
ag5
(g9
S'\xf6(\\\x8f\xc2\xf54\xc0'
p1020
tp1021
Rp1022
ag5
(g9
S'\xaeG\xe1z\x14\xee4\xc0'
p1023
tp1024
Rp1025
ag5
(g9
S'\xf6(\\\x8f\xc2\xf54\xc0'
p1026
tp1027
Rp1028
ag5
(g9
S'q=\n\xd7\xa3\xf04\xc0'
p1029
tp1030
Rp1031
ag5
(g9
S'33333\xf34\xc0'
p1032
tp1033
Rp1034
ag5
(g9
S'q=\n\xd7\xa3\xf04\xc0'
p1035
tp1036
Rp1037
ag5
(g9
S'\xb8\x1e\x85\xebQ\xf84\xc0'
p1038
tp1039
Rp1040
ag5
(g9
S'q=\n\xd7\xa3\xf04\xc0'
p1041
tp1042
Rp1043
ag5
(g9
S'q=\n\xd7\xa3\xf04\xc0'
p1044
tp1045
Rp1046
ag5
(g9
S'{\x14\xaeG\xe1\xfa4\xc0'
p1047
tp1048
Rp1049
ag5
(g9
S'{\x14\xaeG\xe1\xfa4\xc0'
p1050
tp1051
Rp1052
ag5
(g9
S'\xf6(\\\x8f\xc2\xf54\xc0'
p1053
tp1054
Rp1055
ag5
(g9
S'\xf6(\\\x8f\xc2\xf54\xc0'
p1056
tp1057
Rp1058
ag5
(g9
S'\xb8\x1e\x85\xebQ\xf84\xc0'
p1059
tp1060
Rp1061
ag5
(g9
S'33333\xf34\xc0'
p1062
tp1063
Rp1064
ag5
(g9
S'\xe1z\x14\xaeG\xe14\xc0'
p1065
tp1066
Rp1067
ag5
(g9
S'\xa4p=\n\xd7\xe34\xc0'
p1068
tp1069
Rp1070
ag5
(g9
S'\xaeG\xe1z\x14\xee4\xc0'
p1071
tp1072
Rp1073
ag5
(g9
S'\xaeG\xe1z\x14\xee4\xc0'
p1074
tp1075
Rp1076
ag5
(g9
S'q=\n\xd7\xa3\xf04\xc0'
p1077
tp1078
Rp1079
ag5
(g9
S'\xf6(\\\x8f\xc2\xf54\xc0'
p1080
tp1081
Rp1082
ag5
(g9
S'33333\xf34\xc0'
p1083
tp1084
Rp1085
ag5
(g9
S'q=\n\xd7\xa3\xf04\xc0'
p1086
tp1087
Rp1088
ag5
(g9
S'33333\xf34\xc0'
p1089
tp1090
Rp1091
ag5
(g9
S'\xf6(\\\x8f\xc2\xf54\xc0'
p1092
tp1093
Rp1094
ag5
(g9
S'{\x14\xaeG\xe1\xfa4\xc0'
p1095
tp1096
Rp1097
ag5
(g9
S'{\x14\xaeG\xe1\xfa4\xc0'
p1098
tp1099
Rp1100
ag5
(g9
S'=\n\xd7\xa3p\xfd4\xc0'
p1101
tp1102
Rp1103
ag5
(g9
S'{\x14\xaeG\xe1\xfa4\xc0'
p1104
tp1105
Rp1106
ag5
(g9
S'{\x14\xaeG\xe1\xfa4\xc0'
p1107
tp1108
Rp1109
ag5
(g9
S'33333\xf34\xc0'
p1110
tp1111
Rp1112
ag5
(g9
S'33333\xf34\xc0'
p1113
tp1114
Rp1115
ag5
(g9
S'\xecQ\xb8\x1e\x85\xeb4\xc0'
p1116
tp1117
Rp1118
ag5
(g9
S'\xf6(\\\x8f\xc2\xf54\xc0'
p1119
tp1120
Rp1121
ag5
(g9
S'=\n\xd7\xa3p\xfd4\xc0'
p1122
tp1123
Rp1124
ag5
(g9
S'{\x14\xaeG\xe1\xfa4\xc0'
p1125
tp1126
Rp1127
ag5
(g9
S'\xb8\x1e\x85\xebQ\xf84\xc0'
p1128
tp1129
Rp1130
ag5
(g9
S'{\x14\xaeG\xe1\xfa4\xc0'
p1131
tp1132
Rp1133
ag5
(g9
S'{\x14\xaeG\xe1\xfa4\xc0'
p1134
tp1135
Rp1136
ag5
(g9
S'{\x14\xaeG\xe1\xfa4\xc0'
p1137
tp1138
Rp1139
ag5
(g9
S'q=\n\xd7\xa3\xf04\xc0'
p1140
tp1141
Rp1142
ag5
(g9
S'\xf6(\\\x8f\xc2\xf54\xc0'
p1143
tp1144
Rp1145
ag5
(g9
S'{\x14\xaeG\xe1\xfa4\xc0'
p1146
tp1147
Rp1148
ag5
(g9
S'=\n\xd7\xa3p\xfd4\xc0'
p1149
tp1150
Rp1151
ag5
(g9
S'{\x14\xaeG\xe1\xfa4\xc0'
p1152
tp1153
Rp1154
ag5
(g9
S'\xf6(\\\x8f\xc2\xf54\xc0'
p1155
tp1156
Rp1157
ag5
(g9
S'\xaeG\xe1z\x14\xee4\xc0'
p1158
tp1159
Rp1160
ag5
(g9
S'\xf6(\\\x8f\xc2\xf54\xc0'
p1161
tp1162
Rp1163
ag5
(g9
S'{\x14\xaeG\xe1\xfa4\xc0'
p1164
tp1165
Rp1166
ag5
(g9
S'\xf6(\\\x8f\xc2\xf54\xc0'
p1167
tp1168
Rp1169
ag5
(g9
S'\xecQ\xb8\x1e\x85\xeb4\xc0'
p1170
tp1171
Rp1172
ag5
(g9
S'\xecQ\xb8\x1e\x85\xeb4\xc0'
p1173
tp1174
Rp1175
ag5
(g9
S'\xf6(\\\x8f\xc2\xf54\xc0'
p1176
tp1177
Rp1178
ag5
(g9
S'\xecQ\xb8\x1e\x85\xeb4\xc0'
p1179
tp1180
Rp1181
ag5
(g9
S'fffff\xe64\xc0'
p1182
tp1183
Rp1184
ag5
(g9
S'\xecQ\xb8\x1e\x85\xeb4\xc0'
p1185
tp1186
Rp1187
ag5
(g9
S'\xf6(\\\x8f\xc2\xf54\xc0'
p1188
tp1189
Rp1190
ag5
(g9
S'33333\xf34\xc0'
p1191
tp1192
Rp1193
ag5
(g9
S'\xb8\x1e\x85\xebQ\xf84\xc0'
p1194
tp1195
Rp1196
ag5
(g9
S'\xf6(\\\x8f\xc2\xf54\xc0'
p1197
tp1198
Rp1199
ag5
(g9
S'=\n\xd7\xa3p\xfd4\xc0'
p1200
tp1201
Rp1202
ag5
(g9
S'{\x14\xaeG\xe1\xfa4\xc0'
p1203
tp1204
Rp1205
ag5
(g9
S'{\x14\xaeG\xe1\xfa4\xc0'
p1206
tp1207
Rp1208
ag5
(g9
S'\xb8\x1e\x85\xebQ\xf84\xc0'
p1209
tp1210
Rp1211
ag5
(g9
S'\xaeG\xe1z\x14\xee4\xc0'
p1212
tp1213
Rp1214
ag5
(g9
S'q=\n\xd7\xa3\xf04\xc0'
p1215
tp1216
Rp1217
ag5
(g9
S'=\n\xd7\xa3p\xfd4\xc0'
p1218
tp1219
Rp1220
ag5
(g9
S'\xb8\x1e\x85\xebQ\xf84\xc0'
p1221
tp1222
Rp1223
ag5
(g9
S'\xb8\x1e\x85\xebQ\xf84\xc0'
p1224
tp1225
Rp1226
ag5
(g9
S'=\n\xd7\xa3p\xfd4\xc0'
p1227
tp1228
Rp1229
ag5
(g9
S'=\n\xd7\xa3p\xfd4\xc0'
p1230
tp1231
Rp1232
ag5
(g9
S'{\x14\xaeG\xe1\xfa4\xc0'
p1233
tp1234
Rp1235
ag5
(g9
S'\xb8\x1e\x85\xebQ\xf84\xc0'
p1236
tp1237
Rp1238
ag5
(g9
S'\xf6(\\\x8f\xc2\xf54\xc0'
p1239
tp1240
Rp1241
ag5
(g9
S'\xaeG\xe1z\x14\xee4\xc0'
p1242
tp1243
Rp1244
ag5
(g9
S'\xaeG\xe1z\x14\xee4\xc0'
p1245
tp1246
Rp1247
ag5
(g9
S'\xf6(\\\x8f\xc2\xf54\xc0'
p1248
tp1249
Rp1250
ag5
(g9
S'33333\xf34\xc0'
p1251
tp1252
Rp1253
ag5
(g9
S'q=\n\xd7\xa3\xf04\xc0'
p1254
tp1255
Rp1256
ag5
(g9
S'\xb8\x1e\x85\xebQ\xf84\xc0'
p1257
tp1258
Rp1259
ag5
(g9
S'{\x14\xaeG\xe1\xfa4\xc0'
p1260
tp1261
Rp1262
ag5
(g9
S'=\n\xd7\xa3p\xfd4\xc0'
p1263
tp1264
Rp1265
ag5
(g9
S'{\x14\xaeG\xe1\xfa4\xc0'
p1266
tp1267
Rp1268
ag5
(g9
S'\xb8\x1e\x85\xebQ\xf84\xc0'
p1269
tp1270
Rp1271
ag5
(g9
S'\xf6(\\\x8f\xc2\xf54\xc0'
p1272
tp1273
Rp1274
ag5
(g9
S'\xf6(\\\x8f\xc2\xf54\xc0'
p1275
tp1276
Rp1277
ag5
(g9
S'q=\n\xd7\xa3\xf04\xc0'
p1278
tp1279
Rp1280
ag5
(g9
S'q=\n\xd7\xa3\xf04\xc0'
p1281
tp1282
Rp1283
ag5
(g9
S'\xf6(\\\x8f\xc2\xf54\xc0'
p1284
tp1285
Rp1286
ag5
(g9
S'\xb8\x1e\x85\xebQ\xf84\xc0'
p1287
tp1288
Rp1289
ag5
(g9
S'=\n\xd7\xa3p\xfd4\xc0'
p1290
tp1291
Rp1292
ag5
(g9
S'\x00\x00\x00\x00\x00\x005\xc0'
p1293
tp1294
Rp1295
ag5
(g9
S'{\x14\xaeG\xe1\xfa4\xc0'
p1296
tp1297
Rp1298
ag5
(g9
S'\xb8\x1e\x85\xebQ\xf84\xc0'
p1299
tp1300
Rp1301
ag5
(g9
S'{\x14\xaeG\xe1\xfa4\xc0'
p1302
tp1303
Rp1304
ag5
(g9
S'{\x14\xaeG\xe1\xfa4\xc0'
p1305
tp1306
Rp1307
ag5
(g9
S'{\x14\xaeG\xe1\xfa4\xc0'
p1308
tp1309
Rp1310
ag5
(g9
S'\xb8\x1e\x85\xebQ\xf84\xc0'
p1311
tp1312
Rp1313
ag5
(g9
S'\xf6(\\\x8f\xc2\xf54\xc0'
p1314
tp1315
Rp1316
ag5
(g9
S'\xb8\x1e\x85\xebQ\xf84\xc0'
p1317
tp1318
Rp1319
ag5
(g9
S'\xb8\x1e\x85\xebQ\xf84\xc0'
p1320
tp1321
Rp1322
ag5
(g9
S'\xb8\x1e\x85\xebQ\xf84\xc0'
p1323
tp1324
Rp1325
ag5
(g9
S'=\n\xd7\xa3p\xfd4\xc0'
p1326
tp1327
Rp1328
ag5
(g9
S'\xb8\x1e\x85\xebQ\xf84\xc0'
p1329
tp1330
Rp1331
ag5
(g9
S'33333\xf34\xc0'
p1332
tp1333
Rp1334
ag5
(g9
S'\xf6(\\\x8f\xc2\xf54\xc0'
p1335
tp1336
Rp1337
ag5
(g9
S'=\n\xd7\xa3p\xfd4\xc0'
p1338
tp1339
Rp1340
ag5
(g9
S'{\x14\xaeG\xe1\xfa4\xc0'
p1341
tp1342
Rp1343
ag5
(g9
S'\xb8\x1e\x85\xebQ\xf84\xc0'
p1344
tp1345
Rp1346
ag5
(g9
S'\xb8\x1e\x85\xebQ\xf84\xc0'
p1347
tp1348
Rp1349
ag5
(g9
S'33333\xf34\xc0'
p1350
tp1351
Rp1352
ag5
(g9
S'q=\n\xd7\xa3\xf04\xc0'
p1353
tp1354
Rp1355
ag5
(g9
S'\xb8\x1e\x85\xebQ\xf84\xc0'
p1356
tp1357
Rp1358
ag5
(g9
S'=\n\xd7\xa3p\xfd4\xc0'
p1359
tp1360
Rp1361
ag5
(g9
S'=\n\xd7\xa3p\xfd4\xc0'
p1362
tp1363
Rp1364
ag5
(g9
S'=\n\xd7\xa3p\xfd4\xc0'
p1365
tp1366
Rp1367
ag5
(g9
S'{\x14\xaeG\xe1\xfa4\xc0'
p1368
tp1369
Rp1370
ag5
(g9
S'33333\xf34\xc0'
p1371
tp1372
Rp1373
ag5
(g9
S'\xf6(\\\x8f\xc2\xf54\xc0'
p1374
tp1375
Rp1376
ag5
(g9
S'\xb8\x1e\x85\xebQ\xf84\xc0'
p1377
tp1378
Rp1379
ag5
(g9
S'\xb8\x1e\x85\xebQ\xf84\xc0'
p1380
tp1381
Rp1382
ag5
(g9
S'\xb8\x1e\x85\xebQ\xf84\xc0'
p1383
tp1384
Rp1385
ag5
(g9
S'=\n\xd7\xa3p\xfd4\xc0'
p1386
tp1387
Rp1388
ag5
(g9
S'\x00\x00\x00\x00\x00\x005\xc0'
p1389
tp1390
Rp1391
ag5
(g9
S'\xb8\x1e\x85\xebQ\xf84\xc0'
p1392
tp1393
Rp1394
ag5
(g9
S'\xb8\x1e\x85\xebQ\xf84\xc0'
p1395
tp1396
Rp1397
ag5
(g9
S'\xb8\x1e\x85\xebQ\xf84\xc0'
p1398
tp1399
Rp1400
ag5
(g9
S'\x00\x00\x00\x00\x00\x005\xc0'
p1401
tp1402
Rp1403
ag5
(g9
S'=\n\xd7\xa3p\xfd4\xc0'
p1404
tp1405
Rp1406
ag5
(g9
S'{\x14\xaeG\xe1\xfa4\xc0'
p1407
tp1408
Rp1409
ag5
(g9
S'{\x14\xaeG\xe1\xfa4\xc0'
p1410
tp1411
Rp1412
ag5
(g9
S'=\n\xd7\xa3p\xfd4\xc0'
p1413
tp1414
Rp1415
ag5
(g9
S'q=\n\xd7\xa3\xf04\xc0'
p1416
tp1417
Rp1418
ag5
(g9
S'\xaeG\xe1z\x14\xee4\xc0'
p1419
tp1420
Rp1421
ag5
(g9
S'\xf6(\\\x8f\xc2\xf54\xc0'
p1422
tp1423
Rp1424
ag5
(g9
S'\xb8\x1e\x85\xebQ\xf84\xc0'
p1425
tp1426
Rp1427
ag5
(g9
S'\xb8\x1e\x85\xebQ\xf84\xc0'
p1428
tp1429
Rp1430
ag5
(g9
S'\xf6(\\\x8f\xc2\xf54\xc0'
p1431
tp1432
Rp1433
ag5
(g9
S'q=\n\xd7\xa3\xf04\xc0'
p1434
tp1435
Rp1436
ag5
(g9
S'33333\xf34\xc0'
p1437
tp1438
Rp1439
ag5
(g9
S'\xb8\x1e\x85\xebQ\xf84\xc0'
p1440
tp1441
Rp1442
ag5
(g9
S'{\x14\xaeG\xe1\xfa4\xc0'
p1443
tp1444
Rp1445
ag5
(g9
S'=\n\xd7\xa3p\xfd4\xc0'
p1446
tp1447
Rp1448
ag5
(g9
S'\x00\x00\x00\x00\x00\x005\xc0'
p1449
tp1450
Rp1451
ag5
(g9
S'\x00\x00\x00\x00\x00\x005\xc0'
p1452
tp1453
Rp1454
ag5
(g9
S'\xb8\x1e\x85\xebQ\xf84\xc0'
p1455
tp1456
Rp1457
ag5
(g9
S'\xf6(\\\x8f\xc2\xf54\xc0'
p1458
tp1459
Rp1460
ag5
(g9
S'\xb8\x1e\x85\xebQ\xf84\xc0'
p1461
tp1462
Rp1463
ag5
(g9
S'=\n\xd7\xa3p\xfd4\xc0'
p1464
tp1465
Rp1466
ag5
(g9
S'\xb8\x1e\x85\xebQ\xf84\xc0'
p1467
tp1468
Rp1469
ag5
(g9
S'{\x14\xaeG\xe1\xfa4\xc0'
p1470
tp1471
Rp1472
ag5
(g9
S'{\x14\xaeG\xe1\xfa4\xc0'
p1473
tp1474
Rp1475
ag5
(g9
S'=\n\xd7\xa3p\xfd4\xc0'
p1476
tp1477
Rp1478
ag5
(g9
S'=\n\xd7\xa3p\xfd4\xc0'
p1479
tp1480
Rp1481
ag5
(g9
S'=\n\xd7\xa3p\xfd4\xc0'
p1482
tp1483
Rp1484
ag5
(g9
S'\xf6(\\\x8f\xc2\xf54\xc0'
p1485
tp1486
Rp1487
ag5
(g9
S'\xf6(\\\x8f\xc2\xf54\xc0'
p1488
tp1489
Rp1490
ag5
(g9
S'\xb8\x1e\x85\xebQ\xf84\xc0'
p1491
tp1492
Rp1493
ag5
(g9
S'=\n\xd7\xa3p\xfd4\xc0'
p1494
tp1495
Rp1496
ag5
(g9
S'\x00\x00\x00\x00\x00\x005\xc0'
p1497
tp1498
Rp1499
ag5
(g9
S'=\n\xd7\xa3p\xfd4\xc0'
p1500
tp1501
Rp1502
ag5
(g9
S'{\x14\xaeG\xe1\xfa4\xc0'
p1503
tp1504
Rp1505
ag5
(g9
S'{\x14\xaeG\xe1\xfa4\xc0'
p1506
tp1507
Rp1508
ag5
(g9
S'{\x14\xaeG\xe1\xfa4\xc0'
p1509
tp1510
Rp1511
ag5
(g9
S'{\x14\xaeG\xe1\xfa4\xc0'
p1512
tp1513
Rp1514
ag5
(g9
S'{\x14\xaeG\xe1\xfa4\xc0'
p1515
tp1516
Rp1517
ag5
(g9
S'=\n\xd7\xa3p\xfd4\xc0'
p1518
tp1519
Rp1520
ag5
(g9
S'\xb8\x1e\x85\xebQ\xf84\xc0'
p1521
tp1522
Rp1523
ag5
(g9
S'\xb8\x1e\x85\xebQ\xf84\xc0'
p1524
tp1525
Rp1526
ag5
(g9
S'{\x14\xaeG\xe1\xfa4\xc0'
p1527
tp1528
Rp1529
ag5
(g9
S'\xb8\x1e\x85\xebQ\xf84\xc0'
p1530
tp1531
Rp1532
ag5
(g9
S'{\x14\xaeG\xe1\xfa4\xc0'
p1533
tp1534
Rp1535
ag5
(g9
S'=\n\xd7\xa3p\xfd4\xc0'
p1536
tp1537
Rp1538
ag5
(g9
S'\x00\x00\x00\x00\x00\x005\xc0'
p1539
tp1540
Rp1541
ag5
(g9
S'=\n\xd7\xa3p\xfd4\xc0'
p1542
tp1543
Rp1544
ag5
(g9
S'=\n\xd7\xa3p\xfd4\xc0'
p1545
tp1546
Rp1547
ag5
(g9
S'=\n\xd7\xa3p\xfd4\xc0'
p1548
tp1549
Rp1550
ag5
(g9
S'\x00\x00\x00\x00\x00\x005\xc0'
p1551
tp1552
Rp1553
ag5
(g9
S'\x00\x00\x00\x00\x00\x005\xc0'
p1554
tp1555
Rp1556
ag5
(g9
S'=\n\xd7\xa3p\xfd4\xc0'
p1557
tp1558
Rp1559
ag5
(g9
S'\xb8\x1e\x85\xebQ\xf84\xc0'
p1560
tp1561
Rp1562
ag5
(g9
S'\xf6(\\\x8f\xc2\xf54\xc0'
p1563
tp1564
Rp1565
ag5
(g9
S'{\x14\xaeG\xe1\xfa4\xc0'
p1566
tp1567
Rp1568
ag5
(g9
S'{\x14\xaeG\xe1\xfa4\xc0'
p1569
tp1570
Rp1571
ag5
(g9
S'=\n\xd7\xa3p\xfd4\xc0'
p1572
tp1573
Rp1574
ag5
(g9
S'\xb8\x1e\x85\xebQ\xf84\xc0'
p1575
tp1576
Rp1577
ag5
(g9
S'{\x14\xaeG\xe1\xfa4\xc0'
p1578
tp1579
Rp1580
ag5
(g9
S'=\n\xd7\xa3p\xfd4\xc0'
p1581
tp1582
Rp1583
ag5
(g9
S'\x00\x00\x00\x00\x00\x005\xc0'
p1584
tp1585
Rp1586
ag5
(g9
S'\x00\x00\x00\x00\x00\x005\xc0'
p1587
tp1588
Rp1589
ag5
(g9
S'=\n\xd7\xa3p\xfd4\xc0'
p1590
tp1591
Rp1592
ag5
(g9
S'=\n\xd7\xa3p\xfd4\xc0'
p1593
tp1594
Rp1595
ag5
(g9
S'=\n\xd7\xa3p\xfd4\xc0'
p1596
tp1597
Rp1598
ag5
(g9
S'\xb8\x1e\x85\xebQ\xf84\xc0'
p1599
tp1600
Rp1601
ag5
(g9
S'\xb8\x1e\x85\xebQ\xf84\xc0'
p1602
tp1603
Rp1604
ag5
(g9
S'=\n\xd7\xa3p\xfd4\xc0'
p1605
tp1606
Rp1607
ag5
(g9
S'=\n\xd7\xa3p\xfd4\xc0'
p1608
tp1609
Rp1610
ag5
(g9
S'=\n\xd7\xa3p\xfd4\xc0'
p1611
tp1612
Rp1613
ag5
(g9
S'=\n\xd7\xa3p\xfd4\xc0'
p1614
tp1615
Rp1616
ag5
(g9
S'=\n\xd7\xa3p\xfd4\xc0'
p1617
tp1618
Rp1619
ag5
(g9
S'=\n\xd7\xa3p\xfd4\xc0'
p1620
tp1621
Rp1622
ag5
(g9
S'{\x14\xaeG\xe1\xfa4\xc0'
p1623
tp1624
Rp1625
ag5
(g9
S'\xb8\x1e\x85\xebQ\xf84\xc0'
p1626
tp1627
Rp1628
ag5
(g9
S'\xb8\x1e\x85\xebQ\xf84\xc0'
p1629
tp1630
Rp1631
ag5
(g9
S'{\x14\xaeG\xe1\xfa4\xc0'
p1632
tp1633
Rp1634
ag5
(g9
S'\x00\x00\x00\x00\x00\x005\xc0'
p1635
tp1636
Rp1637
ag5
(g9
S'=\n\xd7\xa3p\xfd4\xc0'
p1638
tp1639
Rp1640
ag5
(g9
S'{\x14\xaeG\xe1\xfa4\xc0'
p1641
tp1642
Rp1643
ag5
(g9
S'{\x14\xaeG\xe1\xfa4\xc0'
p1644
tp1645
Rp1646
ag5
(g9
S'=\n\xd7\xa3p\xfd4\xc0'
p1647
tp1648
Rp1649
ag5
(g9
S'=\n\xd7\xa3p\xfd4\xc0'
p1650
tp1651
Rp1652
ag5
(g9
S'=\n\xd7\xa3p\xfd4\xc0'
p1653
tp1654
Rp1655
ag5
(g9
S'=\n\xd7\xa3p\xfd4\xc0'
p1656
tp1657
Rp1658
ag5
(g9
S'=\n\xd7\xa3p\xfd4\xc0'
p1659
tp1660
Rp1661
ag5
(g9
S'{\x14\xaeG\xe1\xfa4\xc0'
p1662
tp1663
Rp1664
ag5
(g9
S'{\x14\xaeG\xe1\xfa4\xc0'
p1665
tp1666
Rp1667
ag5
(g9
S'\xf6(\\\x8f\xc2\xf54\xc0'
p1668
tp1669
Rp1670
ag5
(g9
S'{\x14\xaeG\xe1\xfa4\xc0'
p1671
tp1672
Rp1673
ag5
(g9
S'=\n\xd7\xa3p\xfd4\xc0'
p1674
tp1675
Rp1676
ag5
(g9
S'{\x14\xaeG\xe1\xfa4\xc0'
p1677
tp1678
Rp1679
ag5
(g9
S'{\x14\xaeG\xe1\xfa4\xc0'
p1680
tp1681
Rp1682
ag5
(g9
S'=\n\xd7\xa3p\xfd4\xc0'
p1683
tp1684
Rp1685
ag5
(g9
S'=\n\xd7\xa3p\xfd4\xc0'
p1686
tp1687
Rp1688
ag5
(g9
S'{\x14\xaeG\xe1\xfa4\xc0'
p1689
tp1690
Rp1691
ag5
(g9
S'{\x14\xaeG\xe1\xfa4\xc0'
p1692
tp1693
Rp1694
ag5
(g9
S'{\x14\xaeG\xe1\xfa4\xc0'
p1695
tp1696
Rp1697
ag5
(g9
S'{\x14\xaeG\xe1\xfa4\xc0'
p1698
tp1699
Rp1700
ag5
(g9
S'=\n\xd7\xa3p\xfd4\xc0'
p1701
tp1702
Rp1703
ag5
(g9
S'\x00\x00\x00\x00\x00\x005\xc0'
p1704
tp1705
Rp1706
ag5
(g9
S'\x00\x00\x00\x00\x00\x005\xc0'
p1707
tp1708
Rp1709
ag5
(g9
S'=\n\xd7\xa3p\xfd4\xc0'
p1710
tp1711
Rp1712
ag5
(g9
S'{\x14\xaeG\xe1\xfa4\xc0'
p1713
tp1714
Rp1715
ag5
(g9
S'{\x14\xaeG\xe1\xfa4\xc0'
p1716
tp1717
Rp1718
ag5
(g9
S'{\x14\xaeG\xe1\xfa4\xc0'
p1719
tp1720
Rp1721
ag5
(g9
S'=\n\xd7\xa3p\xfd4\xc0'
p1722
tp1723
Rp1724
ag5
(g9
S'\x00\x00\x00\x00\x00\x005\xc0'
p1725
tp1726
Rp1727
ag5
(g9
S'\x00\x00\x00\x00\x00\x005\xc0'
p1728
tp1729
Rp1730
ag5
(g9
S'\x00\x00\x00\x00\x00\x005\xc0'
p1731
tp1732
Rp1733
ag5
(g9
S'{\x14\xaeG\xe1\xfa4\xc0'
p1734
tp1735
Rp1736
ag5
(g9
S'{\x14\xaeG\xe1\xfa4\xc0'
p1737
tp1738
Rp1739
ag5
(g9
S'{\x14\xaeG\xe1\xfa4\xc0'
p1740
tp1741
Rp1742
ag5
(g9
S'{\x14\xaeG\xe1\xfa4\xc0'
p1743
tp1744
Rp1745
ag5
(g9
S'{\x14\xaeG\xe1\xfa4\xc0'
p1746
tp1747
Rp1748
ag5
(g9
S'{\x14\xaeG\xe1\xfa4\xc0'
p1749
tp1750
Rp1751
ag5
(g9
S'{\x14\xaeG\xe1\xfa4\xc0'
p1752
tp1753
Rp1754
ag5
(g9
S'=\n\xd7\xa3p\xfd4\xc0'
p1755
tp1756
Rp1757
ag5
(g9
S'\x00\x00\x00\x00\x00\x005\xc0'
p1758
tp1759
Rp1760
ag5
(g9
S'\x00\x00\x00\x00\x00\x005\xc0'
p1761
tp1762
Rp1763
ag5
(g9
S'=\n\xd7\xa3p\xfd4\xc0'
p1764
tp1765
Rp1766
ag5
(g9
S'\xf6(\\\x8f\xc2\xf54\xc0'
p1767
tp1768
Rp1769
ag5
(g9
S'\xb8\x1e\x85\xebQ\xf84\xc0'
p1770
tp1771
Rp1772
ag5
(g9
S'\x00\x00\x00\x00\x00\x005\xc0'
p1773
tp1774
Rp1775
ag5
(g9
S'=\n\xd7\xa3p\xfd4\xc0'
p1776
tp1777
Rp1778
ag5
(g9
S'=\n\xd7\xa3p\xfd4\xc0'
p1779
tp1780
Rp1781
ag5
(g9
S'{\x14\xaeG\xe1\xfa4\xc0'
p1782
tp1783
Rp1784
ag5
(g9
S'=\n\xd7\xa3p\xfd4\xc0'
p1785
tp1786
Rp1787
ag5
(g9
S'\x00\x00\x00\x00\x00\x005\xc0'
p1788
tp1789
Rp1790
ag5
(g9
S'{\x14\xaeG\xe1\xfa4\xc0'
p1791
tp1792
Rp1793
ag5
(g9
S'{\x14\xaeG\xe1\xfa4\xc0'
p1794
tp1795
Rp1796
ag5
(g9
S'{\x14\xaeG\xe1\xfa4\xc0'
p1797
tp1798
Rp1799
ag5
(g9
S'=\n\xd7\xa3p\xfd4\xc0'
p1800
tp1801
Rp1802
ag5
(g9
S'=\n\xd7\xa3p\xfd4\xc0'
p1803
tp1804
Rp1805
ag5
(g9
S'=\n\xd7\xa3p\xfd4\xc0'
p1806
tp1807
Rp1808
ag5
(g9
S'\xb8\x1e\x85\xebQ\xf84\xc0'
p1809
tp1810
Rp1811
ag5
(g9
S'\xb8\x1e\x85\xebQ\xf84\xc0'
p1812
tp1813
Rp1814
ag5
(g9
S'{\x14\xaeG\xe1\xfa4\xc0'
p1815
tp1816
Rp1817
ag5
(g9
S'{\x14\xaeG\xe1\xfa4\xc0'
p1818
tp1819
Rp1820
ag5
(g9
S'=\n\xd7\xa3p\xfd4\xc0'
p1821
tp1822
Rp1823
ag5
(g9
S'=\n\xd7\xa3p\xfd4\xc0'
p1824
tp1825
Rp1826
ag5
(g9
S'=\n\xd7\xa3p\xfd4\xc0'
p1827
tp1828
Rp1829
ag5
(g9
S'{\x14\xaeG\xe1\xfa4\xc0'
p1830
tp1831
Rp1832
ag5
(g9
S'\xb8\x1e\x85\xebQ\xf84\xc0'
p1833
tp1834
Rp1835
ag5
(g9
S'{\x14\xaeG\xe1\xfa4\xc0'
p1836
tp1837
Rp1838
ag5
(g9
S'{\x14\xaeG\xe1\xfa4\xc0'
p1839
tp1840
Rp1841
ag5
(g9
S'{\x14\xaeG\xe1\xfa4\xc0'
p1842
tp1843
Rp1844
ag5
(g9
S'=\n\xd7\xa3p\xfd4\xc0'
p1845
tp1846
Rp1847
ag5
(g9
S'\x00\x00\x00\x00\x00\x005\xc0'
p1848
tp1849
Rp1850
ag5
(g9
S'\x00\x00\x00\x00\x00\x005\xc0'
p1851
tp1852
Rp1853
ag5
(g9
S'\x00\x00\x00\x00\x00\x005\xc0'
p1854
tp1855
Rp1856
asS'learning_rate_log'
p1857
(lp1858
F0.01
aF0.01
aF0.01
aF0.01
aF0.01
aF0.01
aF0.01
aF0.01
aF0.01
aF0.01
aF0.01
aF0.01
aF0.01
aF0.01
aF0.01
aF0.01
aF0.01
aF0.01
aF0.01
aF0.01
aF0.01
aF0.01
aF0.01
aF0.01
aF0.01
aF0.01
aF0.01
aF0.01
aF0.01
aF0.01
aF0.01
aF0.01
aF0.01
aF0.01
aF0.01
aF0.01
aF0.01
aF0.01
aF0.01
aF0.01
aF0.01
aF0.01
aF0.01
aF0.01
aF0.01
aF0.01
aF0.01
aF0.01
aF0.01
aF0.01
aF0.01
aF0.01
aF0.01
aF0.01
aF0.01
aF0.01
aF0.01
aF0.01
aF0.01
aF0.01
aF0.01
aF0.01
aF0.01
aF0.01
aF0.01
aF0.01
aF0.01
aF0.01
aF0.01
aF0.01
aF0.01
aF0.01
aF0.01
aF0.01
aF0.01
aF0.01
aF0.01
aF0.01
aF0.01
aF0.01
aF0.01
aF0.01
aF0.01
aF0.01
aF0.01
aF0.01
aF0.01
aF0.01
aF0.01
aF0.01
aF0.01
aF0.01
aF0.01
aF0.01
aF0.01
aF0.0099875
aF0.009975
aF0.009962500000000001
aF0.00995
aF0.0099375
aF0.009925
aF0.0099125
aF0.0099
aF0.0098875
aF0.009875
aF0.0098625
aF0.00985
aF0.0098375
aF0.009825
aF0.0098125
aF0.0098
aF0.009787500000000001
aF0.009775
aF0.0097625
aF0.00975
aF0.0097375
aF0.009725000000000001
aF0.0097125
aF0.0097
aF0.0096875
aF0.009675
aF0.009662500000000001
aF0.00965
aF0.0096375
aF0.009625
aF0.0096125
aF0.009600000000000001
aF0.0095875
aF0.009575
aF0.0095625
aF0.00955
aF0.0095375
aF0.009525
aF0.0095125
aF0.0095
aF0.0094875
aF0.009475
aF0.0094625
aF0.00945
aF0.0094375
aF0.009425
aF0.0094125
aF0.0094
aF0.0093875
aF0.009375
aF0.0093625
aF0.00935
aF0.0093375
aF0.009325
aF0.0093125
aF0.0093
aF0.0092875
aF0.009275
aF0.0092625
aF0.00925
aF0.009237500000000001
aF0.009225
aF0.0092125
aF0.0092
aF0.0091875
aF0.009175
aF0.0091625
aF0.00915
aF0.0091375
aF0.009125000000000001
aF0.0091125
aF0.0091
aF0.0090875
aF0.009075
aF0.009062500000000001
aF0.00905
aF0.0090375
aF0.009025
aF0.0090125
aF0.009000000000000001
aF0.0089875
aF0.008975
aF0.0089625
aF0.00895
aF0.008937500000000001
aF0.008925
aF0.0089125
aF0.0089
aF0.0088875
aF0.008875000000000001
aF0.0088625
aF0.00885
aF0.0088375
aF0.008825
aF0.008812500000000001
aF0.0088
aF0.0087875
aF0.008775
aF0.0087625
aF0.00875
aF0.0087375
aF0.008725
aF0.0087125
aF0.0087
aF0.0086875
aF0.008675
aF0.0086625
aF0.00865
aF0.0086375
aF0.008625
aF0.0086125
aF0.0086
aF0.0085875
aF0.008575000000000001
aF0.0085625
aF0.00855
aF0.0085375
aF0.008525
aF0.008512500000000001
aF0.0085
aF0.0084875
aF0.008475
aF0.0084625
aF0.008450000000000001
aF0.0084375
aF0.008425
aF0.0084125
aF0.0084
aF0.0083875
aF0.008375
aF0.0083625
aF0.00835
aF0.0083375
aF0.008325
aF0.0083125
aF0.0083
aF0.0082875
aF0.008275000000000001
aF0.0082625
aF0.00825
aF0.0082375
aF0.008225
aF0.008212500000000001
aF0.0082
aF0.0081875
aF0.008175
aF0.0081625
aF0.008150000000000001
aF0.0081375
aF0.008125
aF0.0081125
aF0.0081
aF0.008087500000000001
aF0.008075
aF0.0080625
aF0.00805
aF0.0080375
aF0.008025000000000001
aF0.0080125
aF0.008
aF0.0079875
aF0.007975
aF0.0079625
aF0.00795
aF0.0079375
aF0.007925
aF0.0079125
aF0.0079
aF0.0078875
aF0.007875
aF0.0078625
aF0.00785
aF0.0078375
aF0.007825
aF0.0078125
aF0.0078
aF0.0077875
aF0.007775000000000001
aF0.0077625
aF0.00775
aF0.0077375
aF0.007725
aF0.007712500000000001
aF0.0077
aF0.0076875
aF0.0076749999999999995
aF0.0076625
aF0.0076500000000000005
aF0.0076375
aF0.007625
aF0.0076125
aF0.007600000000000001
aF0.0075875000000000005
aF0.007575
aF0.0075625
aF0.00755
aF0.007537500000000001
aF0.0075250000000000004
aF0.0075125
aF0.0075
aF0.0074875
aF0.007475000000000001
aF0.0074625
aF0.00745
aF0.0074375000000000005
aF0.007425
aF0.007412500000000001
aF0.0074
aF0.0073875
aF0.007375
aF0.0073625
aF0.007350000000000001
aF0.0073375
aF0.007325
aF0.0073125
aF0.0073
aF0.007287500000000001
aF0.007275
aF0.0072625
aF0.0072499999999999995
aF0.0072375
aF0.0072250000000000005
aF0.0072125
aF0.0072
aF0.0071875
aF0.007175000000000001
aF0.0071625000000000005
aF0.00715
aF0.0071375
aF0.007125
aF0.0071125
aF0.0071
aF0.0070875
aF0.007075
aF0.0070625
aF0.007050000000000001
aF0.0070375
aF0.007025
aF0.0070125
aF0.007
aF0.0069875
aF0.006975
aF0.0069625
aF0.00695
aF0.0069375
aF0.006925000000000001
aF0.0069125
aF0.0069
aF0.0068874999999999995
aF0.006875
aF0.0068625000000000005
aF0.00685
aF0.0068375
aF0.0068249999999999995
aF0.006812500000000001
aF0.0068000000000000005
aF0.0067875
aF0.006775
aF0.0067625
aF0.00675
aF0.0067375
aF0.006725
aF0.0067125
aF0.006699999999999999
aF0.006687500000000001
aF0.006675
aF0.0066625
aF0.00665
aF0.0066375
aF0.006625
aF0.0066125
aF0.0066
aF0.0065875
aF0.006574999999999999
aF0.006562500000000001
aF0.00655
aF0.0065375
aF0.006525
aF0.0065125
aF0.006500000000000001
aF0.0064875
aF0.006475
aF0.0064624999999999995
aF0.006450000000000001
aF0.0064375000000000005
aF0.006425
aF0.0064125
aF0.0064
aF0.0063875
aF0.0063750000000000005
aF0.0063625
aF0.00635
aF0.006337499999999999
aF0.006325000000000001
aF0.0063125
aF0.0063
aF0.0062875
aF0.006275
aF0.0062625
aF0.00625
aF0.0062375
aF0.006225
aF0.006212500000000001
aF0.006200000000000001
aF0.0061875
aF0.006175
aF0.0061625000000000004
aF0.00615
aF0.006137500000000001
aF0.006125
aF0.0061125
aF0.0060999999999999995
aF0.0060875
aF0.006075
aF0.0060625
aF0.00605
aF0.0060375
aF0.006025
aF0.0060125000000000005
aF0.006
aF0.0059875
aF0.005975
aF0.0059625
aF0.0059499999999999996
aF0.0059375
aF0.005925000000000001
aF0.0059125
aF0.005900000000000001
aF0.0058875
aF0.005875
aF0.0058625
aF0.00585
aF0.0058375
aF0.005825
aF0.0058125
aF0.0058000000000000005
aF0.0057875
aF0.005775000000000001
aF0.0057625
aF0.00575
aF0.0057374999999999995
aF0.005725
aF0.0057125
aF0.0057
aF0.0056875
aF0.005675
aF0.0056625
aF0.0056500000000000005
aF0.0056375
aF0.005625
aF0.0056125
aF0.0056
aF0.0055875000000000005
aF0.005575
aF0.005562500000000001
aF0.00555
aF0.0055375
aF0.005525
aF0.0055125
aF0.0055
aF0.0054875
aF0.005475
aF0.0054625
aF0.00545
aF0.0054375000000000005
aF0.005425
aF0.0054125
aF0.0054
aF0.0053875
aF0.005375
aF0.0053625
aF0.00535
aF0.0053375
aF0.005325
aF0.0053125
aF0.0053
aF0.0052875
aF0.005275
aF0.0052625
aF0.00525
aF0.0052375
aF0.0052250000000000005
aF0.0052125
aF0.005200000000000001
aF0.0051875
aF0.005175
aF0.0051624999999999996
aF0.00515
aF0.0051375
aF0.005125
aF0.0051125
aF0.0051
aF0.0050875
aF0.0050750000000000005
aF0.0050625
aF0.00505
aF0.0050374999999999994
aF0.005025
aF0.0050125
aF0.005
aF0.005
aF0.005
aF0.005
aF0.005
aF0.005
aF0.005
aF0.005
aF0.005
aF0.005
aF0.005
aF0.005
aF0.005
aF0.005
aF0.005
aF0.005
aF0.005
aF0.005
aF0.005
aF0.005
aF0.005
aF0.005
aF0.005
aF0.005
aF0.005
aF0.005
aF0.005
aF0.005
aF0.005
aF0.005
aF0.005
aF0.005
aF0.005
aF0.005
aF0.005
aF0.005
aF0.005
aF0.005
aF0.005
aF0.005
aF0.005
aF0.005
aF0.005
aF0.005
aF0.005
aF0.005
aF0.005
aF0.005
aF0.005
aF0.005
aF0.005
aF0.005
aF0.005
aF0.005
aF0.005
aF0.005
aF0.005
aF0.005
aF0.005
aF0.005
aF0.005
aF0.005
aF0.005
aF0.005
aF0.005
aF0.005
aF0.005
aF0.005
aF0.005
aF0.005
aF0.005
aF0.005
aF0.005
aF0.005
aF0.005
aF0.005
aF0.005
aF0.005
aF0.005
aF0.005
aF0.005
aF0.005
aF0.005
aF0.005
aF0.005
aF0.005
aF0.005
aF0.005
aF0.005
aF0.005
aF0.005
aF0.005
aF0.005
aF0.005
aF0.005
aF0.005
aF0.005
aF0.005
aF0.005
aF0.005
aF0.005
aF0.005
aF0.005
aF0.005
aF0.005
aF0.005
aF0.005
aF0.005
aF0.005
aF0.005
aF0.005
aF0.005
aF0.005
aF0.005
aF0.005
aF0.005
aF0.005
aF0.005
aF0.005
aF0.005
aF0.005
asS'exploration_log'
p1859
(lp1860
F0.194
aF0.193
aF0.192
aF0.191
aF0.19
aF0.189
aF0.188
aF0.187
aF0.186
aF0.185
aF0.184
aF0.183
aF0.18200000000000002
aF0.181
aF0.18
aF0.17900000000000002
aF0.17800000000000002
aF0.17700000000000002
aF0.17600000000000002
aF0.17500000000000002
aF0.17400000000000002
aF0.17300000000000001
aF0.17200000000000001
aF0.171
aF0.17
aF0.169
aF0.168
aF0.167
aF0.166
aF0.165
aF0.164
aF0.163
aF0.162
aF0.161
aF0.16
aF0.159
aF0.158
aF0.157
aF0.156
aF0.155
aF0.154
aF0.15300000000000002
aF0.15200000000000002
aF0.15100000000000002
aF0.15000000000000002
aF0.14900000000000002
aF0.14800000000000002
aF0.14700000000000002
aF0.14600000000000002
aF0.14500000000000002
aF0.14400000000000002
aF0.14300000000000002
aF0.14200000000000002
aF0.14100000000000001
aF0.14
aF0.139
aF0.138
aF0.137
aF0.136
aF0.135
aF0.134
aF0.133
aF0.132
aF0.131
aF0.13
aF0.129
aF0.128
aF0.127
aF0.126
aF0.125
aF0.124
aF0.123
aF0.122
aF0.121
aF0.12
aF0.119
aF0.11800000000000001
aF0.117
aF0.116
aF0.115
aF0.114
aF0.113
aF0.112
aF0.111
aF0.11
aF0.109
aF0.108
aF0.107
aF0.10600000000000001
aF0.10500000000000001
aF0.10400000000000001
aF0.10300000000000001
aF0.10200000000000001
aF0.101
aF0.1
aF0.099775
aF0.09955
aF0.09932500000000001
aF0.09910000000000001
aF0.098875
aF0.09865
aF0.098425
aF0.09820000000000001
aF0.097975
aF0.09775
aF0.097525
aF0.09730000000000001
aF0.09707500000000001
aF0.09685
aF0.096625
aF0.0964
aF0.09617500000000001
aF0.09595000000000001
aF0.095725
aF0.0955
aF0.095275
aF0.09505000000000001
aF0.094825
aF0.0946
aF0.094375
aF0.09415000000000001
aF0.09392500000000001
aF0.0937
aF0.093475
aF0.09325
aF0.09302500000000001
aF0.09280000000000001
aF0.092575
aF0.09235
aF0.09212500000000001
aF0.09190000000000001
aF0.091675
aF0.09145
aF0.091225
aF0.091
aF0.09077500000000001
aF0.09055
aF0.090325
aF0.0901
aF0.08987500000000001
aF0.08965000000000001
aF0.089425
aF0.0892
aF0.088975
aF0.08875000000000001
aF0.088525
aF0.0883
aF0.088075
aF0.08785
aF0.08762500000000001
aF0.0874
aF0.087175
aF0.08695
aF0.08672500000000001
aF0.08650000000000001
aF0.086275
aF0.08605
aF0.085825
aF0.08560000000000001
aF0.085375
aF0.08515
aF0.084925
aF0.0847
aF0.08447500000000001
aF0.08425
aF0.084025
aF0.0838
aF0.08357500000000001
aF0.08335000000000001
aF0.083125
aF0.0829
aF0.082675
aF0.08245
aF0.082225
aF0.082
aF0.081775
aF0.08155000000000001
aF0.08132500000000001
aF0.0811
aF0.080875
aF0.08065
aF0.080425
aF0.08020000000000001
aF0.079975
aF0.07975
aF0.079525
aF0.07930000000000001
aF0.079075
aF0.07885
aF0.078625
aF0.0784
aF0.07817500000000001
aF0.07795
aF0.077725
aF0.0775
aF0.07727500000000001
aF0.07705000000000001
aF0.076825
aF0.0766
aF0.076375
aF0.07615
aF0.075925
aF0.0757
aF0.075475
aF0.07525
aF0.07502500000000001
aF0.0748
aF0.074575
aF0.07435
aF0.074125
aF0.07390000000000001
aF0.073675
aF0.07345
aF0.073225
aF0.07300000000000001
aF0.072775
aF0.07255
aF0.072325
aF0.0721
aF0.071875
aF0.07165
aF0.071425
aF0.0712
aF0.070975
aF0.07075000000000001
aF0.070525
aF0.0703
aF0.070075
aF0.06985
aF0.06962499999999999
aF0.0694
aF0.069175
aF0.06895000000000001
aF0.06872500000000001
aF0.0685
aF0.068275
aF0.06805
aF0.067825
aF0.0676
aF0.067375
aF0.06715
aF0.06692500000000001
aF0.06670000000000001
aF0.066475
aF0.06625
aF0.066025
aF0.0658
aF0.065575
aF0.06534999999999999
aF0.065125
aF0.0649
aF0.06467500000000001
aF0.06445000000000001
aF0.064225
aF0.064
aF0.063775
aF0.06355
aF0.063325
aF0.0631
aF0.062875
aF0.06265000000000001
aF0.062425
aF0.062200000000000005
aF0.061975
aF0.06175
aF0.061525
aF0.0613
aF0.061075000000000004
aF0.06085
aF0.060625
aF0.0604
aF0.060175
aF0.05995
aF0.059725
aF0.0595
aF0.059275
aF0.05905
aF0.058825
aF0.0586
aF0.058374999999999996
aF0.05815
aF0.057925
aF0.0577
aF0.057475000000000005
aF0.05725
aF0.057025
aF0.0568
aF0.056575
aF0.056350000000000004
aF0.056125
aF0.0559
aF0.055675
aF0.05545
aF0.055225
aF0.055
aF0.054775000000000004
aF0.05455
aF0.054325000000000005
aF0.0541
aF0.053875000000000006
aF0.053649999999999996
aF0.053425
aF0.0532
aF0.052975
aF0.05275
aF0.052525
aF0.0523
aF0.052075
aF0.05185
aF0.051625000000000004
aF0.051399999999999994
aF0.051175
aF0.050949999999999995
aF0.050725
aF0.050499999999999996
aF0.050275
aF0.05005
aF0.049825
aF0.0496
aF0.049375
aF0.049150000000000006
aF0.048924999999999996
aF0.04870000000000001
aF0.048475
aF0.04825
aF0.048025
aF0.0478
aF0.047575
aF0.04735
aF0.047125
aF0.046900000000000004
aF0.046674999999999994
aF0.04645
aF0.046224999999999995
aF0.046
aF0.045774999999999996
aF0.04555
aF0.045325
aF0.0451
aF0.044875
aF0.04465
aF0.04442499999999999
aF0.044199999999999996
aF0.04397499999999999
aF0.04375
aF0.043525
aF0.0433
aF0.043075
aF0.04285
aF0.042625
aF0.0424
aF0.042175000000000004
aF0.041949999999999994
aF0.041725000000000005
aF0.041499999999999995
aF0.041275
aF0.041049999999999996
aF0.040825
aF0.0406
aF0.040375
aF0.04015
aF0.039925
aF0.03969999999999999
aF0.039474999999999996
aF0.03924999999999999
aF0.039025
aF0.038799999999999994
aF0.038575
aF0.038349999999999995
aF0.038125
aF0.0379
aF0.037675
aF0.03745
aF0.037224999999999994
aF0.037000000000000005
aF0.036775
aF0.03655
aF0.036324999999999996
aF0.03610000000000001
aF0.03587499999999999
aF0.03565
aF0.035425
aF0.035199999999999995
aF0.03497499999999999
aF0.03475
aF0.034525
aF0.0343
aF0.034074999999999994
aF0.033850000000000005
aF0.03362499999999999
aF0.0334
aF0.033174999999999996
aF0.03294999999999999
aF0.03272499999999999
aF0.0325
aF0.032275
aF0.032049999999999995
aF0.031825000000000006
aF0.0316
aF0.031375
aF0.031149999999999997
aF0.030924999999999994
aF0.03069999999999999
aF0.030475000000000002
aF0.03025
aF0.030024999999999996
aF0.029799999999999993
aF0.029575000000000004
aF0.02935
aF0.029124999999999998
aF0.028899999999999995
aF0.028674999999999992
aF0.02844999999999999
aF0.028225
aF0.027999999999999997
aF0.027774999999999994
aF0.02754999999999999
aF0.027325000000000002
aF0.0271
aF0.026874999999999996
aF0.026650000000000007
aF0.02642499999999999
aF0.0262
aF0.025974999999999998
aF0.025749999999999995
aF0.025524999999999992
aF0.025300000000000003
aF0.025075
aF0.024849999999999997
aF0.024624999999999994
aF0.024400000000000005
aF0.024174999999999988
aF0.02395
aF0.023724999999999996
aF0.023499999999999993
aF0.02327499999999999
aF0.02305
aF0.022824999999999998
aF0.022599999999999995
aF0.022374999999999992
aF0.022150000000000003
aF0.021924999999999986
aF0.021699999999999997
aF0.021474999999999994
aF0.02124999999999999
aF0.021025000000000002
aF0.0208
aF0.020574999999999996
aF0.020349999999999993
aF0.020125000000000004
aF0.0199
aF0.019674999999999998
aF0.019449999999999995
aF0.019225000000000006
aF0.01899999999999999
aF0.018775
aF0.018549999999999997
aF0.018324999999999994
aF0.01809999999999999
aF0.017875000000000002
aF0.01765
aF0.017424999999999996
aF0.017199999999999993
aF0.01697499999999999
aF0.016749999999999987
aF0.016524999999999998
aF0.016299999999999995
aF0.016074999999999992
aF0.01584999999999999
aF0.015625
aF0.015399999999999997
aF0.015174999999999994
aF0.014950000000000005
aF0.014724999999999988
aF0.014499999999999999
aF0.014274999999999996
aF0.014049999999999993
aF0.01382499999999999
aF0.013600000000000001
aF0.013374999999999998
aF0.013149999999999995
aF0.012924999999999992
aF0.012700000000000003
aF0.012474999999999986
aF0.012249999999999997
aF0.012024999999999994
aF0.011799999999999991
aF0.011574999999999988
aF0.011349999999999999
aF0.011124999999999996
aF0.010899999999999993
aF0.01067499999999999
aF0.010450000000000001
aF0.010224999999999984
aF0.01
aF0.01
aF0.01
aF0.01
aF0.01
aF0.01
aF0.01
aF0.01
aF0.01
aF0.01
aF0.01
aF0.01
aF0.01
aF0.01
aF0.01
aF0.01
aF0.01
aF0.01
aF0.01
aF0.01
aF0.01
aF0.01
aF0.01
aF0.01
aF0.01
aF0.01
aF0.01
aF0.01
aF0.01
aF0.01
aF0.01
aF0.01
aF0.01
aF0.01
aF0.01
aF0.01
aF0.01
aF0.01
aF0.01
aF0.01
aF0.01
aF0.01
aF0.01
aF0.01
aF0.01
aF0.01
aF0.01
aF0.01
aF0.01
aF0.01
aF0.01
aF0.01
aF0.01
aF0.01
aF0.01
aF0.01
aF0.01
aF0.01
aF0.01
aF0.01
aF0.01
aF0.01
aF0.01
aF0.01
aF0.01
aF0.01
aF0.01
aF0.01
aF0.01
aF0.01
aF0.01
aF0.01
aF0.01
aF0.01
aF0.01
aF0.01
aF0.01
aF0.01
aF0.01
aF0.01
aF0.01
aF0.01
aF0.01
aF0.01
aF0.01
aF0.01
aF0.01
aF0.01
aF0.01
aF0.01
aF0.01
aF0.01
aF0.01
aF0.01
aF0.01
aF0.01
aF0.01
aF0.01
aF0.01
aF0.01
aF0.01
aF0.01
aF0.01
aF0.01
aF0.01
aF0.01
aF0.01
aF0.01
aF0.01
aF0.01
aF0.01
aF0.01
aF0.01
aF0.01
aF0.01
aF0.01
aF0.01
aF0.01
aF0.01
aF0.01
aF0.01
asS'best_mean_log'
p1861
(lp1862
g5
(g9
S'\x00\x00\x00\x00\x00\x804\xc0'
p1863
tp1864
Rp1865
ag1865
ag1865
ag1865
ag1865
ag1865
ag1865
ag1865
ag1865
ag1865
ag1865
ag1865
ag1865
ag1865
ag1865
ag1865
ag1865
ag1865
ag1865
ag1865
ag1865
ag1865
ag1865
ag1865
ag1865
ag1865
ag1865
ag1865
ag1865
ag1865
ag1865
ag1865
ag1865
ag1865
ag1865
ag1865
ag1865
ag1865
ag1865
ag1865
ag1865
ag1865
ag1865
ag1865
ag1865
ag1865
ag1865
ag1865
ag1865
ag1865
ag1865
ag1865
ag1865
ag1865
ag1865
ag1865
ag1865
ag1865
ag1865
ag1865
ag1865
ag1865
ag1865
ag1865
ag1865
ag1865
ag1865
ag1865
ag1865
ag1865
ag1865
ag1865
ag1865
ag1865
ag1865
ag1865
ag1865
ag1865
ag1865
ag1865
ag1865
ag1865
ag1865
ag1865
ag1865
ag1865
ag1865
ag1865
ag1865
ag1865
ag1865
ag1865
ag1865
ag1865
ag1865
ag1865
ag1865
ag1865
ag1865
ag1865
ag1865
ag1865
ag1865
ag1865
ag1865
ag1865
ag1865
ag1865
ag1865
ag1865
ag1865
ag1865
ag1865
ag1865
ag1865
ag1865
ag1865
ag1865
ag1865
ag1865
ag1865
ag1865
ag1865
ag1865
ag1865
ag1865
ag1865
ag1865
ag1865
ag1865
ag1865
ag1865
ag1865
ag1865
ag1865
ag1865
ag1865
ag1865
ag1865
ag1865
ag1865
ag1865
ag1865
ag1865
ag1865
ag1865
ag1865
ag1865
ag1865
ag1865
ag1865
ag1865
ag1865
ag1865
ag1865
ag1865
ag1865
ag1865
ag1865
ag1865
ag1865
ag1865
ag1865
ag1865
ag1865
ag1865
ag1865
ag1865
ag1865
ag1865
ag1865
ag1865
ag1865
ag1865
ag1865
ag1865
ag1865
ag1865
ag1865
ag1865
ag1865
ag1865
ag1865
ag1865
ag1865
ag1865
ag1865
ag1865
ag1865
ag1865
ag1865
ag1865
ag1865
ag1865
ag1865
ag1865
ag1865
ag1865
ag1865
ag1865
ag1865
ag1865
ag1865
ag1865
ag1865
ag1865
ag1865
ag1865
ag1865
ag1865
ag1865
ag1865
ag1865
ag1865
ag1865
ag1865
ag1865
ag1865
ag1865
ag1865
ag1865
ag1865
ag1865
ag1865
ag1865
ag1865
ag1865
ag1865
ag1865
ag1865
ag1865
ag1865
ag1865
ag1865
ag1865
ag1865
ag1865
ag1865
ag1865
ag1865
ag1865
ag1865
ag1865
ag1865
ag1865
ag1865
ag1865
ag1865
ag1865
ag1865
ag1865
ag1865
ag1865
ag1865
ag1865
ag1865
ag1865
ag1865
ag1865
ag1865
ag1865
ag1865
ag1865
ag1865
ag1865
ag1865
ag1865
ag1865
ag1865
ag1865
ag1865
ag1865
ag1865
ag1865
ag1865
ag1865
ag1865
ag1865
ag1865
ag1865
ag1865
ag1865
ag1865
ag1865
ag1865
ag1865
ag1865
ag1865
ag1865
ag1865
ag1865
ag1865
ag1865
ag1865
ag1865
ag1865
ag1865
ag1865
ag1865
ag1865
ag1865
ag1865
ag1865
ag1865
ag1865
ag1865
ag1865
ag1865
ag1865
ag1865
ag1865
ag1865
ag1865
ag1865
ag1865
ag1865
ag1865
ag1865
ag1865
ag1865
ag1865
ag1865
ag1865
ag1865
ag1865
ag1865
ag1865
ag1865
ag1865
ag1865
ag1865
ag1865
ag1865
ag1865
ag1865
ag1865
ag1865
ag1865
ag1865
ag1865
ag1865
ag1865
ag1865
ag1865
ag1865
ag1865
ag1865
ag1865
ag1865
ag1865
ag1865
ag1865
ag1865
ag1865
ag1865
ag1865
ag1865
ag1865
ag1865
ag1865
ag1865
ag1865
ag1865
ag1865
ag1865
ag1865
ag1865
ag1865
ag1865
ag1865
ag1865
ag1865
ag1865
ag1865
ag1865
ag1865
ag1865
ag1865
ag1865
ag1865
ag1865
ag1865
ag1865
ag1865
ag1865
ag1865
ag1865
ag1865
ag1865
ag1865
ag1865
ag1865
ag1865
ag1865
ag1865
ag1865
ag1865
ag1865
ag1865
ag1865
ag1865
ag1865
ag1865
ag1865
ag1865
ag1865
ag1865
ag1865
ag1865
ag1865
ag1865
ag1865
ag1865
ag1865
ag1865
ag1865
ag1865
ag1865
ag1865
ag1865
ag1865
ag1865
ag1865
ag1865
ag1865
ag1865
ag1865
ag1865
ag1865
ag1865
ag1865
ag1865
ag1865
ag1865
ag1865
ag1865
ag1865
ag1865
ag1865
ag1865
ag1865
ag1865
ag1865
ag1865
ag1865
ag1865
ag1865
ag1865
ag1865
ag1865
ag1865
ag1865
ag1865
ag1865
ag1865
ag1865
ag1865
ag1865
ag1865
ag1865
ag1865
ag1865
ag1865
ag1865
ag1865
ag1865
ag1865
ag1865
ag1865
ag1865
ag1865
ag1865
ag1865
ag1865
ag1865
ag1865
ag1865
ag1865
ag1865
ag1865
ag1865
ag1865
ag1865
ag1865
ag1865
ag1865
ag1865
ag1865
ag1865
ag1865
ag1865
ag1865
ag1865
ag1865
ag1865
ag1865
ag1865
ag1865
ag1865
ag1865
ag1865
ag1865
ag1865
ag1865
ag1865
ag1865
ag1865
ag1865
ag1865
ag1865
ag1865
ag1865
ag1865
ag1865
ag1865
ag1865
ag1865
ag1865
ag1865
ag1865
ag1865
ag1865
ag1865
ag1865
ag1865
ag1865
ag1865
ag1865
ag1865
ag1865
ag1865
ag1865
ag1865
ag1865
ag1865
ag1865
ag1865
ag1865
ag1865
ag1865
ag1865
ag1865
ag1865
ag1865
ag1865
ag1865
ag1865
ag1865
ag1865
ag1865
ag1865
ag1865
ag1865
ag1865
ag1865
ag1865
ag1865
ag1865
ag1865
ag1865
ag1865
ag1865
ag1865
ag1865
ag1865
ag1865
ag1865
ag1865
ag1865
ag1865
ag1865
ag1865
ag1865
ag1865
ag1865
ag1865
ag1865
ag1865
ag1865
ag1865
ag1865
ag1865
ag1865
ag1865
ag1865
ag1865
ag1865
ag1865
ag1865
ag1865
ag1865
ag1865
ag1865
ag1865
ag1865
ag1865
ag1865
ag1865
ag1865
ag1865
ag1865
ag1865
ag1865
ag1865
ag1865
ag1865
ag1865
ag1865
ag1865
ag1865
ag1865
ag1865
ag1865
ag1865
ag1865
asS'episodes_log'
p1866
(lp1867
I206
aI243
aI281
aI318
aI356
aI393
aI431
aI469
aI507
aI545
aI582
aI620
aI658
aI696
aI734
aI772
aI809
aI848
aI886
aI924
aI962
aI1000
aI1037
aI1075
aI1114
aI1152
aI1190
aI1228
aI1266
aI1304
aI1341
aI1378
aI1416
aI1453
aI1490
aI1528
aI1567
aI1604
aI1642
aI1681
aI1718
aI1757
aI1795
aI1833
aI1870
aI1909
aI1947
aI1986
aI2024
aI2063
aI2100
aI2139
aI2177
aI2214
aI2252
aI2290
aI2328
aI2366
aI2404
aI2442
aI2481
aI2519
aI2557
aI2595
aI2634
aI2671
aI2710
aI2748
aI2786
aI2824
aI2863
aI2901
aI2939
aI2977
aI3015
aI3053
aI3091
aI3130
aI3168
aI3207
aI3246
aI3285
aI3323
aI3362
aI3401
aI3439
aI3478
aI3516
aI3555
aI3593
aI3632
aI3670
aI3709
aI3748
aI3786
aI3824
aI3863
aI3901
aI3938
aI3977
aI4015
aI4055
aI4093
aI4131
aI4169
aI4207
aI4245
aI4284
aI4323
aI4362
aI4400
aI4438
aI4477
aI4515
aI4553
aI4592
aI4629
aI4669
aI4707
aI4746
aI4784
aI4823
aI4861
aI4900
aI4939
aI4977
aI5016
aI5055
aI5093
aI5131
aI5171
aI5209
aI5247
aI5286
aI5324
aI5362
aI5401
aI5440
aI5479
aI5518
aI5557
aI5596
aI5634
aI5673
aI5712
aI5750
aI5789
aI5829
aI5868
aI5906
aI5945
aI5984
aI6023
aI6062
aI6100
aI6139
aI6178
aI6217
aI6256
aI6295
aI6333
aI6371
aI6409
aI6448
aI6486
aI6524
aI6563
aI6602
aI6642
aI6681
aI6719
aI6758
aI6797
aI6836
aI6876
aI6914
aI6953
aI6992
aI7031
aI7069
aI7107
aI7146
aI7185
aI7223
aI7262
aI7301
aI7340
aI7379
aI7418
aI7456
aI7495
aI7535
aI7574
aI7613
aI7652
aI7690
aI7729
aI7768
aI7806
aI7845
aI7883
aI7922
aI7961
aI8000
aI8039
aI8077
aI8116
aI8154
aI8194
aI8232
aI8271
aI8310
aI8349
aI8388
aI8427
aI8467
aI8506
aI8545
aI8584
aI8623
aI8662
aI8701
aI8739
aI8778
aI8817
aI8855
aI8894
aI8933
aI8971
aI9010
aI9049
aI9088
aI9128
aI9167
aI9206
aI9246
aI9285
aI9323
aI9362
aI9401
aI9439
aI9478
aI9517
aI9556
aI9595
aI9634
aI9673
aI9711
aI9750
aI9789
aI9828
aI9867
aI9906
aI9945
aI9984
aI10023
aI10061
aI10099
aI10138
aI10177
aI10216
aI10255
aI10294
aI10334
aI10373
aI10412
aI10452
aI10491
aI10530
aI10570
aI10609
aI10648
aI10687
aI10726
aI10765
aI10804
aI10843
aI10882
aI10920
aI10960
aI10998
aI11037
aI11077
aI11116
aI11155
aI11194
aI11232
aI11272
aI11311
aI11350
aI11389
aI11427
aI11467
aI11506
aI11544
aI11584
aI11623
aI11662
aI11701
aI11740
aI11779
aI11818
aI11857
aI11896
aI11935
aI11974
aI12013
aI12052
aI12092
aI12131
aI12170
aI12208
aI12248
aI12287
aI12327
aI12366
aI12405
aI12445
aI12483
aI12522
aI12562
aI12601
aI12640
aI12680
aI12719
aI12758
aI12797
aI12836
aI12875
aI12915
aI12954
aI12993
aI13033
aI13072
aI13112
aI13151
aI13190
aI13229
aI13269
aI13308
aI13347
aI13386
aI13426
aI13465
aI13504
aI13544
aI13583
aI13623
aI13662
aI13702
aI13741
aI13780
aI13819
aI13858
aI13898
aI13937
aI13977
aI14016
aI14055
aI14095
aI14134
aI14174
aI14213
aI14253
aI14292
aI14332
aI14371
aI14410
aI14449
aI14488
aI14528
aI14568
aI14607
aI14647
aI14686
aI14726
aI14765
aI14805
aI14844
aI14884
aI14923
aI14963
aI15002
aI15042
aI15082
aI15121
aI15160
aI15199
aI15239
aI15278
aI15317
aI15357
aI15397
aI15436
aI15476
aI15515
aI15555
aI15595
aI15635
aI15674
aI15714
aI15753
aI15793
aI15833
aI15872
aI15912
aI15952
aI15991
aI16031
aI16069
aI16108
aI16148
aI16188
aI16227
aI16267
aI16306
aI16346
aI16386
aI16426
aI16465
aI16505
aI16544
aI16584
aI16623
aI16663
aI16703
aI16743
aI16783
aI16822
aI16862
aI16901
aI16941
aI16980
aI17020
aI17060
aI17100
aI17139
aI17179
aI17218
aI17258
aI17298
aI17337
aI17377
aI17417
aI17456
aI17496
aI17535
aI17574
aI17614
aI17654
aI17694
aI17733
aI17773
aI17812
aI17852
aI17892
aI17932
aI17972
aI18011
aI18051
aI18091
aI18130
aI18170
aI18210
aI18250
aI18290
aI18330
aI18369
aI18408
aI18448
aI18488
aI18528
aI18568
aI18607
aI18647
aI18686
aI18726
aI18766
aI18806
aI18846
aI18885
aI18925
aI18964
aI19004
aI19044
aI19083
aI19123
aI19163
aI19203
aI19243
aI19282
aI19322
aI19362
aI19402
aI19442
aI19482
aI19522
aI19562
aI19602
aI19642
aI19681
aI19721
aI19761
aI19801
aI19841
aI19880
aI19920
aI19960
aI20001
aI20040
aI20080
aI20120
aI20160
aI20200
aI20239
aI20279
aI20319
aI20359
aI20399
aI20439
aI20479
aI20518
aI20558
aI20598
aI20638
aI20678
aI20717
aI20758
aI20797
aI20837
aI20876
aI20916
aI20956
aI20996
aI21036
aI21075
aI21115
aI21155
aI21195
aI21234
aI21274
aI21314
aI21354
aI21394
aI21434
aI21473
aI21513
aI21553
aI21593
aI21633
aI21673
aI21712
aI21752
aI21792
aI21832
aI21871
aI21911
aI21951
aI21991
aI22030
aI22070
aI22110
aI22150
aI22190
aI22230
aI22269
aI22309
aI22349
aI22389
aI22428
aI22468
aI22508
aI22547
aI22587
aI22627
aI22667
aI22707
aI22747
aI22786
aI22826
aI22866
aI22906
aI22946
aI22985
aI23025
aI23064
aI23104
aI23144
aI23184
aI23224
aI23264
aI23304
aI23344
aI23383
aI23423
aI23463
aI23503
aI23543
aI23583
aI23622
aI23662
aI23702
aI23741
aI23781
aI23821
aI23861
aI23901
aI23940
aI23980
aI24020
aI24060
aI24100
aI24140
aI24180
aI24220
as.