(dp0
S't_log'
p1
(lp2
I60000
aI70000
aI80000
aI90000
aI100000
aI110000
aI120000
aI130000
aI140000
aI150000
aI160000
aI170000
aI180000
aI190000
aI200000
aI210000
aI220000
aI230000
aI240000
aI250000
aI260000
aI270000
aI280000
aI290000
aI300000
aI310000
aI320000
aI330000
aI340000
aI350000
aI360000
aI370000
aI380000
aI390000
aI400000
aI410000
aI420000
aI430000
aI440000
aI450000
aI460000
aI470000
aI480000
aI490000
aI500000
aI510000
aI520000
aI530000
aI540000
aI550000
aI560000
aI570000
aI580000
aI590000
aI600000
aI610000
aI620000
aI630000
aI640000
aI650000
aI660000
aI670000
aI680000
aI690000
aI700000
aI710000
aI720000
aI730000
aI740000
aI750000
aI760000
aI770000
aI780000
aI790000
aI800000
aI810000
aI820000
aI830000
aI840000
aI850000
aI860000
aI870000
aI880000
aI890000
aI900000
aI910000
aI920000
aI930000
aI940000
aI950000
aI960000
aI970000
aI980000
aI990000
aI1000000
aI1010000
aI1020000
aI1030000
aI1040000
aI1050000
aI1060000
aI1070000
aI1080000
aI1090000
aI1100000
aI1110000
aI1120000
aI1130000
aI1140000
aI1150000
aI1160000
aI1170000
aI1180000
aI1190000
aI1200000
aI1210000
aI1220000
aI1230000
aI1240000
aI1250000
aI1260000
aI1270000
aI1280000
aI1290000
aI1300000
aI1310000
aI1320000
aI1330000
aI1340000
aI1350000
aI1360000
aI1370000
aI1380000
aI1390000
aI1400000
aI1410000
aI1420000
aI1430000
aI1440000
aI1450000
aI1460000
aI1470000
aI1480000
aI1490000
aI1500000
aI1510000
aI1520000
aI1530000
aI1540000
aI1550000
aI1560000
aI1570000
aI1580000
aI1590000
aI1600000
aI1610000
aI1620000
aI1630000
aI1640000
aI1650000
aI1660000
aI1670000
aI1680000
aI1690000
aI1700000
aI1710000
aI1720000
aI1730000
aI1740000
aI1750000
aI1760000
aI1770000
aI1780000
aI1790000
aI1800000
aI1810000
aI1820000
aI1830000
aI1840000
aI1850000
aI1860000
aI1870000
aI1880000
aI1890000
aI1900000
aI1910000
aI1920000
aI1930000
aI1940000
aI1950000
aI1960000
aI1970000
aI1980000
aI1990000
aI2000000
aI2010000
aI2020000
aI2030000
aI2040000
aI2050000
aI2060000
aI2070000
aI2080000
aI2090000
aI2100000
aI2110000
aI2120000
aI2130000
aI2140000
aI2150000
aI2160000
aI2170000
aI2180000
aI2190000
aI2200000
aI2210000
aI2220000
aI2230000
aI2240000
aI2250000
aI2260000
aI2270000
aI2280000
aI2290000
aI2300000
aI2310000
aI2320000
aI2330000
aI2340000
aI2350000
aI2360000
aI2370000
aI2380000
aI2390000
aI2400000
aI2410000
aI2420000
aI2430000
aI2440000
aI2450000
aI2460000
aI2470000
aI2480000
aI2490000
aI2500000
aI2510000
aI2520000
aI2530000
aI2540000
aI2550000
aI2560000
aI2570000
aI2580000
aI2590000
aI2600000
aI2610000
aI2620000
aI2630000
aI2640000
aI2650000
aI2660000
aI2670000
aI2680000
aI2690000
aI2700000
aI2710000
aI2720000
aI2730000
aI2740000
aI2750000
aI2760000
aI2770000
aI2780000
aI2790000
aI2800000
aI2810000
aI2820000
aI2830000
aI2840000
aI2850000
aI2860000
aI2870000
aI2880000
aI2890000
aI2900000
aI2910000
aI2920000
aI2930000
aI2940000
aI2950000
aI2960000
aI2970000
aI2980000
aI2990000
aI3000000
aI3010000
aI3020000
aI3030000
aI3040000
aI3050000
aI3060000
aI3070000
aI3080000
aI3090000
aI3100000
aI3110000
aI3120000
aI3130000
aI3140000
aI3150000
aI3160000
aI3170000
aI3180000
aI3190000
aI3200000
aI3210000
aI3220000
aI3230000
aI3240000
aI3250000
aI3260000
aI3270000
aI3280000
aI3290000
aI3300000
aI3310000
aI3320000
aI3330000
aI3340000
aI3350000
aI3360000
aI3370000
aI3380000
aI3390000
aI3400000
aI3410000
aI3420000
aI3430000
aI3440000
aI3450000
aI3460000
aI3470000
aI3480000
aI3490000
aI3500000
aI3510000
aI3520000
aI3530000
aI3540000
aI3550000
aI3560000
aI3570000
aI3580000
aI3590000
aI3600000
aI3610000
aI3620000
aI3630000
aI3640000
aI3650000
aI3660000
aI3670000
aI3680000
aI3690000
aI3700000
aI3710000
aI3720000
aI3730000
aI3740000
aI3750000
aI3760000
aI3770000
aI3780000
aI3790000
aI3800000
aI3810000
aI3820000
aI3830000
aI3840000
aI3850000
aI3860000
aI3870000
aI3880000
aI3890000
aI3900000
aI3910000
aI3920000
aI3930000
aI3940000
aI3950000
aI3960000
aI3970000
aI3980000
aI3990000
aI4000000
aI4010000
aI4020000
aI4030000
aI4040000
aI4050000
aI4060000
aI4070000
aI4080000
aI4090000
aI4100000
aI4110000
aI4120000
aI4130000
aI4140000
aI4150000
aI4160000
aI4170000
aI4180000
aI4190000
aI4200000
aI4210000
aI4220000
aI4230000
aI4240000
aI4250000
aI4260000
aI4270000
aI4280000
aI4290000
aI4300000
aI4310000
aI4320000
aI4330000
aI4340000
aI4350000
aI4360000
aI4370000
aI4380000
aI4390000
aI4400000
aI4410000
aI4420000
aI4430000
aI4440000
aI4450000
aI4460000
aI4470000
aI4480000
aI4490000
aI4500000
aI4510000
aI4520000
aI4530000
aI4540000
aI4550000
aI4560000
aI4570000
aI4580000
aI4590000
aI4600000
aI4610000
aI4620000
aI4630000
aI4640000
aI4650000
aI4660000
aI4670000
aI4680000
aI4690000
aI4700000
aI4710000
aI4720000
aI4730000
aI4740000
aI4750000
aI4760000
aI4770000
aI4780000
aI4790000
aI4800000
aI4810000
aI4820000
aI4830000
aI4840000
aI4850000
aI4860000
aI4870000
aI4880000
aI4890000
aI4900000
aI4910000
aI4920000
aI4930000
aI4940000
aI4950000
aI4960000
aI4970000
aI4980000
aI4990000
aI5000000
asS'mean_reward_log'
p3
(lp4
cnumpy.core.multiarray
scalar
p5
(cnumpy
dtype
p6
(S'f8'
p7
I0
I1
tp8
Rp9
(I3
S'<'
p10
NNNI-1
I-1
I0
tp11
bS'\x00\x00\x00\x00\x0044\xc0'
p12
tp13
Rp14
ag5
(g9
S'7\xd0i\x03\x9d64\xc0'
p15
tp16
Rp17
ag5
(g9
S'\x8f\xb8#\xee\x88;4\xc0'
p18
tp19
Rp20
ag5
(g9
S'\x00\x00\x00\x00\x00(4\xc0'
p21
tp22
Rp23
ag5
(g9
S'\xecQ\xb8\x1e\x85+4\xc0'
p24
tp25
Rp26
ag5
(g9
S'\xaeG\xe1z\x14.4\xc0'
p27
tp28
Rp29
ag5
(g9
S'\xc3\xf5(\\\x8fB4\xc0'
p30
tp31
Rp32
ag5
(g9
S'\x1f\x85\xebQ\xb8\x1e4\xc0'
p33
tp34
Rp35
ag5
(g9
S'fffff&4\xc0'
p36
tp37
Rp38
ag5
(g9
S'\x9a\x99\x99\x99\x99\x194\xc0'
p39
tp40
Rp41
ag5
(g9
S'\x9a\x99\x99\x99\x99\x194\xc0'
p42
tp43
Rp44
ag5
(g9
S'\\\x8f\xc2\xf5(\x1c4\xc0'
p45
tp46
Rp47
ag5
(g9
S'\x14\xaeG\xe1z\x144\xc0'
p48
tp49
Rp50
ag5
(g9
S'\xcd\xcc\xcc\xcc\xcc\x0c4\xc0'
p51
tp52
Rp53
ag5
(g9
S'H\xe1z\x14\xae\x074\xc0'
p54
tp55
Rp56
ag5
(g9
S'\x00\x00\x00\x00\x00\x004\xc0'
p57
tp58
Rp59
ag5
(g9
S'\x1f\x85\xebQ\xb8\xde3\xc0'
p60
tp61
Rp62
ag5
(g9
S'\x9a\x99\x99\x99\x99\xd93\xc0'
p63
tp64
Rp65
ag5
(g9
S'\x8f\xc2\xf5(\\\xcf3\xc0'
p66
tp67
Rp68
ag5
(g9
S'\xcd\xcc\xcc\xcc\xcc\xcc3\xc0'
p69
tp70
Rp71
ag5
(g9
S'\xf6(\\\x8f\xc2\xb53\xc0'
p72
tp73
Rp74
ag5
(g9
S'fffff\xa63\xc0'
p75
tp76
Rp77
ag5
(g9
S'\x85\xebQ\xb8\x1e\x853\xc0'
p78
tp79
Rp80
ag5
(g9
S'\xaeG\xe1z\x14n3\xc0'
p81
tp82
Rp83
ag5
(g9
S'\xa4p=\n\xd7c3\xc0'
p84
tp85
Rp86
ag5
(g9
S'\xc3\xf5(\\\x8fB3\xc0'
p87
tp88
Rp89
ag5
(g9
S')\\\x8f\xc2\xf5(3\xc0'
p90
tp91
Rp92
ag5
(g9
S'R\xb8\x1e\x85\xeb\x113\xc0'
p93
tp94
Rp95
ag5
(g9
S'\x85\xebQ\xb8\x1e\x053\xc0'
p96
tp97
Rp98
ag5
(g9
S'\xf6(\\\x8f\xc2\xf52\xc0'
p99
tp100
Rp101
ag5
(g9
S'\x14\xaeG\xe1z\xd42\xc0'
p102
tp103
Rp104
ag5
(g9
S'\x8f\xc2\xf5(\\\xcf2\xc0'
p105
tp106
Rp107
ag5
(g9
S'fffff\xa62\xc0'
p108
tp109
Rp110
ag5
(g9
S'\x14\xaeG\xe1z\x942\xc0'
p111
tp112
Rp113
ag5
(g9
S'\n\xd7\xa3p=\x8a2\xc0'
p114
tp115
Rp116
ag5
(g9
S'=\n\xd7\xa3p}2\xc0'
p117
tp118
Rp119
ag5
(g9
S'\xecQ\xb8\x1e\x85k2\xc0'
p120
tp121
Rp122
ag5
(g9
S'\x14\xaeG\xe1zT2\xc0'
p123
tp124
Rp125
ag5
(g9
S'\x14\xaeG\xe1zT2\xc0'
p126
tp127
Rp128
ag5
(g9
S'\n\xd7\xa3p=J2\xc0'
p129
tp130
Rp131
ag5
(g9
S'\x85\xebQ\xb8\x1eE2\xc0'
p132
tp133
Rp134
ag5
(g9
S'\xf6(\\\x8f\xc252\xc0'
p135
tp136
Rp137
ag5
(g9
S'q=\n\xd7\xa302\xc0'
p138
tp139
Rp140
ag5
(g9
S'fffff&2\xc0'
p141
tp142
Rp143
ag5
(g9
S')\\\x8f\xc2\xf5(2\xc0'
p144
tp145
Rp146
ag5
(g9
S'fffff&2\xc0'
p147
tp148
Rp149
ag5
(g9
S'fffff&2\xc0'
p150
tp151
Rp152
ag5
(g9
S'\xecQ\xb8\x1e\x85+2\xc0'
p153
tp154
Rp155
ag5
(g9
S'\x9a\x99\x99\x99\x99\x192\xc0'
p156
tp157
Rp158
ag5
(g9
S'\x85\xebQ\xb8\x1e\x052\xc0'
p159
tp160
Rp161
ag5
(g9
S'=\n\xd7\xa3p\xfd1\xc0'
p162
tp163
Rp164
ag5
(g9
S'\xaeG\xe1z\x14\xee1\xc0'
p165
tp166
Rp167
ag5
(g9
S'\xecQ\xb8\x1e\x85\xeb1\xc0'
p168
tp169
Rp170
ag5
(g9
S'=\n\xd7\xa3p\xbd1\xc0'
p171
tp172
Rp173
ag5
(g9
S'33333\xb31\xc0'
p174
tp175
Rp176
ag5
(g9
S'\x8f\xc2\xf5(\\\x8f1\xc0'
p177
tp178
Rp179
ag5
(g9
S'q=\n\xd7\xa3p1\xc0'
p180
tp181
Rp182
ag5
(g9
S'\n\xd7\xa3p=J1\xc0'
p183
tp184
Rp185
ag5
(g9
S'\xecQ\xb8\x1e\x85+1\xc0'
p186
tp187
Rp188
ag5
(g9
S'\x9a\x99\x99\x99\x99\x191\xc0'
p189
tp190
Rp191
ag5
(g9
S'=\n\xd7\xa3p\xfd0\xc0'
p192
tp193
Rp194
ag5
(g9
S'q=\n\xd7\xa3\xf00\xc0'
p195
tp196
Rp197
ag5
(g9
S'\\\x8f\xc2\xf5(\xdc0\xc0'
p198
tp199
Rp200
ag5
(g9
S'\x8f\xc2\xf5(\\\x8f0\xc0'
p201
tp202
Rp203
ag5
(g9
S'\xaeG\xe1z\x14n0\xc0'
p204
tp205
Rp206
ag5
(g9
S'\x00\x00\x00\x00\x00@0\xc0'
p207
tp208
Rp209
ag5
(g9
S'\x00\x00\x00\x00\x00\x000\xc0'
p210
tp211
Rp212
ag5
(g9
S'\xb8\x1e\x85\xebQ\xb8/\xc0'
p213
tp214
Rp215
ag5
(g9
S'\xa4p=\n\xd7\xa3/\xc0'
p216
tp217
Rp218
ag5
(g9
S'\xcd\xcc\xcc\xcc\xccL/\xc0'
p219
tp220
Rp221
ag5
(g9
S'333333/\xc0'
p222
tp223
Rp224
ag5
(g9
S'fffff\xe6.\xc0'
p225
tp226
Rp227
ag5
(g9
S'q=\n\xd7\xa3p.\xc0'
p228
tp229
Rp230
ag5
(g9
S'\xcd\xcc\xcc\xcc\xccL.\xc0'
p231
tp232
Rp233
ag5
(g9
S'\xb8\x1e\x85\xebQ\xb8-\xc0'
p234
tp235
Rp236
ag5
(g9
S'\xecQ\xb8\x1e\x85k-\xc0'
p237
tp238
Rp239
ag5
(g9
S'q=\n\xd7\xa3\xf0,\xc0'
p240
tp241
Rp242
ag5
(g9
S'\x8f\xc2\xf5(\\\x8f,\xc0'
p243
tp244
Rp245
ag5
(g9
S'\x9a\x99\x99\x99\x99\x19,\xc0'
p246
tp247
Rp248
ag5
(g9
S'\x14\xaeG\xe1z\x94+\xc0'
p249
tp250
Rp251
ag5
(g9
S'\x14\xaeG\xe1z\x14+\xc0'
p252
tp253
Rp254
ag5
(g9
S'{\x14\xaeG\xe1z*\xc0'
p255
tp256
Rp257
ag5
(g9
S'\xd7\xa3p=\n\xd7)\xc0'
p258
tp259
Rp260
ag5
(g9
S'\xe1z\x14\xaeGa)\xc0'
p261
tp262
Rp263
ag5
(g9
S'\xd7\xa3p=\n\xd7(\xc0'
p264
tp265
Rp266
ag5
(g9
S'\xd7\xa3p=\nW(\xc0'
p267
tp268
Rp269
ag5
(g9
S'q=\n\xd7\xa3\xf0&\xc0'
p270
tp271
Rp272
ag5
(g9
S'ffffff&\xc0'
p273
tp274
Rp275
ag5
(g9
S'33333\xb3%\xc0'
p276
tp277
Rp278
ag5
(g9
S'\x85\xebQ\xb8\x1e\x85$\xc0'
p279
tp280
Rp281
ag5
(g9
S'\xa4p=\n\xd7\xa3#\xc0'
p282
tp283
Rp284
ag5
(g9
S'R\xb8\x1e\x85\xeb\xd1"\xc0'
p285
tp286
Rp287
ag5
(g9
S'\x1f\x85\xebQ\xb8\x1e"\xc0'
p288
tp289
Rp290
ag5
(g9
S'333333!\xc0'
p291
tp292
Rp293
ag5
(g9
S'\x8f\xc2\xf5(\\\x8f\x1f\xc0'
p294
tp295
Rp296
ag5
(g9
S')\\\x8f\xc2\xf5(\x1c\xc0'
p297
tp298
Rp299
ag5
(g9
S'333333\x19\xc0'
p300
tp301
Rp302
ag5
(g9
S'\x1f\x85\xebQ\xb8\x1e\x15\xc0'
p303
tp304
Rp305
ag5
(g9
S'ffffff\x12\xc0'
p306
tp307
Rp308
ag5
(g9
S'\xa4p=\n\xd7\xa3\x0e\xc0'
p309
tp310
Rp311
ag5
(g9
S'\x8f\xc2\xf5(\\\x8f\x08\xc0'
p312
tp313
Rp314
ag5
(g9
S'\xa4p=\n\xd7\xa3\x04\xc0'
p315
tp316
Rp317
ag5
(g9
S'\xf6(\\\x8f\xc2\xf5\xfc\xbf'
p318
tp319
Rp320
ag5
(g9
S'ffffff\xee\xbf'
p321
tp322
Rp323
ag5
(g9
S'{\x14\xaeG\xe1z\xd4\xbf'
p324
tp325
Rp326
ag5
(g9
S'\xaeG\xe1z\x14\xae\xd7?'
p327
tp328
Rp329
ag5
(g9
S'\x1f\x85\xebQ\xb8\x1e\xf1?'
p330
tp331
Rp332
ag5
(g9
S'\x1f\x85\xebQ\xb8\x1e\x01@'
p333
tp334
Rp335
ag5
(g9
S'H\xe1z\x14\xaeG\t@'
p336
tp337
Rp338
ag5
(g9
S'R\xb8\x1e\x85\xebQ\x10@'
p339
tp340
Rp341
ag5
(g9
S'\x1f\x85\xebQ\xb8\x1e\x14@'
p342
tp343
Rp344
ag5
(g9
S'\xcd\xcc\xcc\xcc\xcc\xcc\x17@'
p345
tp346
Rp347
ag5
(g9
S'R\xb8\x1e\x85\xebQ\x1b@'
p348
tp349
Rp350
ag5
(g9
S'\xd7\xa3p=\n\xd7\x1e@'
p351
tp352
Rp353
ag5
(g9
S'q=\n\xd7\xa3\xf0 @'
p354
tp355
Rp356
ag5
(g9
S'\x14\xaeG\xe1z\x94"@'
p357
tp358
Rp359
ag5
(g9
S'q=\n\xd7\xa3\xf0#@'
p360
tp361
Rp362
ag5
(g9
S'{\x14\xaeG\xe1\xfa$@'
p363
tp364
Rp365
ag5
(g9
S')\\\x8f\xc2\xf5\xa8%@'
p366
tp367
Rp368
ag5
(g9
S'333333&@'
p369
tp370
Rp371
ag5
(g9
S"\xecQ\xb8\x1e\x85k'@"
p372
tp373
Rp374
ag5
(g9
S')\\\x8f\xc2\xf5\xa8(@'
p375
tp376
Rp377
ag5
(g9
S'=\n\xd7\xa3p\xbd(@'
p378
tp379
Rp380
ag5
(g9
S'\xecQ\xb8\x1e\x85\xeb(@'
p381
tp382
Rp383
ag5
(g9
S'\x14\xaeG\xe1z\x14)@'
p384
tp385
Rp386
ag5
(g9
S'\xf6(\\\x8f\xc2u(@'
p387
tp388
Rp389
ag5
(g9
S')\\\x8f\xc2\xf5((@'
p390
tp391
Rp392
ag5
(g9
S'\xb8\x1e\x85\xebQ8(@'
p393
tp394
Rp395
ag5
(g9
S'q=\n\xd7\xa3p(@'
p396
tp397
Rp398
ag5
(g9
S'q=\n\xd7\xa3p(@'
p399
tp400
Rp401
ag5
(g9
S'\\\x8f\xc2\xf5(\xdc(@'
p402
tp403
Rp404
ag5
(g9
S'\xd7\xa3p=\nW)@'
p405
tp406
Rp407
ag5
(g9
S'\x00\x00\x00\x00\x00\x80)@'
p408
tp409
Rp410
ag5
(g9
S'\x9a\x99\x99\x99\x99\x99)@'
p411
tp412
Rp413
ag5
(g9
S'\x00\x00\x00\x00\x00\x80)@'
p414
tp415
Rp416
ag5
(g9
S'\xaeG\xe1z\x14.)@'
p417
tp418
Rp419
ag5
(g9
S'\xaeG\xe1z\x14\xae(@'
p420
tp421
Rp422
ag5
(g9
S'\xaeG\xe1z\x14.(@'
p423
tp424
Rp425
ag5
(g9
S'\xa4p=\n\xd7#(@'
p426
tp427
Rp428
ag5
(g9
S'\x85\xebQ\xb8\x1e\x05(@'
p429
tp430
Rp431
ag5
(g9
S'\x1f\x85\xebQ\xb8\x1e(@'
p432
tp433
Rp434
ag5
(g9
S'\x8f\xc2\xf5(\\\x0f(@'
p435
tp436
Rp437
ag5
(g9
S'H\xe1z\x14\xaeG(@'
p438
tp439
Rp440
ag5
(g9
S'\n\xd7\xa3p=\x8a(@'
p441
tp442
Rp443
ag5
(g9
S'R\xb8\x1e\x85\xeb\xd1(@'
p444
tp445
Rp446
ag5
(g9
S'\xf6(\\\x8f\xc2u)@'
p447
tp448
Rp449
ag5
(g9
S'\xe1z\x14\xaeG\xe1)@'
p450
tp451
Rp452
ag5
(g9
S'\xd7\xa3p=\n\xd7)@'
p453
tp454
Rp455
ag5
(g9
S'\xe1z\x14\xaeG\xe1)@'
p456
tp457
Rp458
ag5
(g9
S'\\\x8f\xc2\xf5(\\*@'
p459
tp460
Rp461
ag5
(g9
S'\xcd\xcc\xcc\xcc\xcc\xcc*@'
p462
tp463
Rp464
ag5
(g9
S'{\x14\xaeG\xe1\xfa+@'
p465
tp466
Rp467
ag5
(g9
S'\xc3\xf5(\\\x8fB,@'
p468
tp469
Rp470
ag5
(g9
S'\x00\x00\x00\x00\x00\x00-@'
p471
tp472
Rp473
ag5
(g9
S'\x9a\x99\x99\x99\x99\x99-@'
p474
tp475
Rp476
ag5
(g9
S'\xc3\xf5(\\\x8f\xc2-@'
p477
tp478
Rp479
ag5
(g9
S'\x1f\x85\xebQ\xb8\x1e.@'
p480
tp481
Rp482
ag5
(g9
S'33333\xb3.@'
p483
tp484
Rp485
ag5
(g9
S'\x1f\x85\xebQ\xb8\x1e/@'
p486
tp487
Rp488
ag5
(g9
S'3333330@'
p489
tp490
Rp491
ag5
(g9
S'\xb8\x1e\x85\xebQ80@'
p492
tp493
Rp494
ag5
(g9
S'q=\n\xd7\xa300@'
p495
tp496
Rp497
ag5
(g9
S'\xb8\x1e\x85\xebQ80@'
p498
tp499
Rp500
ag5
(g9
S'R\xb8\x1e\x85\xebQ0@'
p501
tp502
Rp503
ag5
(g9
S'\xf6(\\\x8f\xc2u0@'
p504
tp505
Rp506
ag5
(g9
S'\xaeG\xe1z\x14n0@'
p507
tp508
Rp509
ag5
(g9
S'\xecQ\xb8\x1e\x85k0@'
p510
tp511
Rp512
ag5
(g9
S'\\\x8f\xc2\xf5(\\0@'
p513
tp514
Rp515
ag5
(g9
S'\x00\x00\x00\x00\x00@0@'
p516
tp517
Rp518
ag5
(g9
S'\xc3\xf5(\\\x8fB0@'
p519
tp520
Rp521
ag5
(g9
S'\x14\xaeG\xe1zT0@'
p522
tp523
Rp524
ag5
(g9
S'\xcd\xcc\xcc\xcc\xccL0@'
p525
tp526
Rp527
ag5
(g9
S'=\n\xd7\xa3p}0@'
p528
tp529
Rp530
ag5
(g9
S'=\n\xd7\xa3p}0@'
p531
tp532
Rp533
ag5
(g9
S'\x14\xaeG\xe1z\x940@'
p534
tp535
Rp536
ag5
(g9
S'q=\n\xd7\xa3\xb00@'
p537
tp538
Rp539
ag5
(g9
S'\xb8\x1e\x85\xebQ\xb80@'
p540
tp541
Rp542
ag5
(g9
S'\x14\xaeG\xe1z\xd40@'
p543
tp544
Rp545
ag5
(g9
S'\xd7\xa3p=\n\xd70@'
p546
tp547
Rp548
ag5
(g9
S'q=\n\xd7\xa3\xf00@'
p549
tp550
Rp551
ag5
(g9
S'\xf6(\\\x8f\xc2\xf50@'
p552
tp553
Rp554
ag5
(g9
S')\\\x8f\xc2\xf5(1@'
p555
tp556
Rp557
ag5
(g9
S'{\x14\xaeG\xe1:1@'
p558
tp559
Rp560
ag5
(g9
S'\xb8\x1e\x85\xebQ81@'
p561
tp562
Rp563
ag5
(g9
S')\\\x8f\xc2\xf5(1@'
p564
tp565
Rp566
ag5
(g9
S'\x9a\x99\x99\x99\x99\x191@'
p567
tp568
Rp569
ag5
(g9
S'R\xb8\x1e\x85\xeb\x111@'
p570
tp571
Rp572
ag5
(g9
S'\xa4p=\n\xd7#1@'
p573
tp574
Rp575
ag5
(g9
S')\\\x8f\xc2\xf5(1@'
p576
tp577
Rp578
ag5
(g9
S'\x00\x00\x00\x00\x00@1@'
p579
tp580
Rp581
ag5
(g9
S'=\n\xd7\xa3p=1@'
p582
tp583
Rp584
ag5
(g9
S'\xc3\xf5(\\\x8fB1@'
p585
tp586
Rp587
ag5
(g9
S'\x00\x00\x00\x00\x00@1@'
p588
tp589
Rp590
ag5
(g9
S'\xb8\x1e\x85\xebQ81@'
p591
tp592
Rp593
ag5
(g9
S'\xc3\xf5(\\\x8fB1@'
p594
tp595
Rp596
ag5
(g9
S'\xaeG\xe1z\x14.1@'
p597
tp598
Rp599
ag5
(g9
S'\xa4p=\n\xd7#1@'
p600
tp601
Rp602
ag5
(g9
S'\x1f\x85\xebQ\xb8\x1e1@'
p603
tp604
Rp605
ag5
(g9
S'\x8f\xc2\xf5(\\\x0f1@'
p606
tp607
Rp608
ag5
(g9
S'\x9a\x99\x99\x99\x99\x191@'
p609
tp610
Rp611
ag5
(g9
S'\xaeG\xe1z\x14.1@'
p612
tp613
Rp614
ag5
(g9
S')\\\x8f\xc2\xf5(1@'
p615
tp616
Rp617
ag5
(g9
S'\x1f\x85\xebQ\xb8\x1e1@'
p618
tp619
Rp620
ag5
(g9
S'3333331@'
p621
tp622
Rp623
ag5
(g9
S'\x85\xebQ\xb8\x1eE1@'
p624
tp625
Rp626
ag5
(g9
S'R\xb8\x1e\x85\xebQ1@'
p627
tp628
Rp629
ag5
(g9
S'\xa4p=\n\xd7c1@'
p630
tp631
Rp632
ag5
(g9
S'{\x14\xaeG\xe1z1@'
p633
tp634
Rp635
ag5
(g9
S')\\\x8f\xc2\xf5h1@'
p636
tp637
Rp638
ag5
(g9
S'33333s1@'
p639
tp640
Rp641
ag5
(g9
S'\xc3\xf5(\\\x8f\x821@'
p642
tp643
Rp644
ag5
(g9
S'\xd7\xa3p=\n\x971@'
p645
tp646
Rp647
ag5
(g9
S')\\\x8f\xc2\xf5\xa81@'
p648
tp649
Rp650
ag5
(g9
S'q=\n\xd7\xa3\xb01@'
p651
tp652
Rp653
ag5
(g9
S'=\n\xd7\xa3p\xbd1@'
p654
tp655
Rp656
ag5
(g9
S'\x14\xaeG\xe1z\xd41@'
p657
tp658
Rp659
ag5
(g9
S'q=\n\xd7\xa3\xf01@'
p660
tp661
Rp662
ag5
(g9
S')\\\x8f\xc2\xf5\xe81@'
p663
tp664
Rp665
ag5
(g9
S'R\xb8\x1e\x85\xeb\x112@'
p666
tp667
Rp668
ag5
(g9
S'\n\xd7\xa3p=\n2@'
p669
tp670
Rp671
ag5
(g9
S'=\n\xd7\xa3p\xfd1@'
p672
tp673
Rp674
ag5
(g9
S'\xb8\x1e\x85\xebQ\xf81@'
p675
tp676
Rp677
ag5
(g9
S'\xe1z\x14\xaeG\xe11@'
p678
tp679
Rp680
ag5
(g9
S'\x85\xebQ\xb8\x1e\x052@'
p681
tp682
Rp683
ag5
(g9
S'\x85\xebQ\xb8\x1e\x052@'
p684
tp685
Rp686
ag5
(g9
S'\n\xd7\xa3p=\n2@'
p687
tp688
Rp689
ag5
(g9
S'\x14\xaeG\xe1z\x142@'
p690
tp691
Rp692
ag5
(g9
S'\x14\xaeG\xe1z\x142@'
p693
tp694
Rp695
ag5
(g9
S'\xe1z\x14\xaeG!2@'
p696
tp697
Rp698
ag5
(g9
S'q=\n\xd7\xa302@'
p699
tp700
Rp701
ag5
(g9
S'q=\n\xd7\xa302@'
p702
tp703
Rp704
ag5
(g9
S'\xc3\xf5(\\\x8fB2@'
p705
tp706
Rp707
ag5
(g9
S'\x00\x00\x00\x00\x00@2@'
p708
tp709
Rp710
ag5
(g9
S'\xcd\xcc\xcc\xcc\xccL2@'
p711
tp712
Rp713
ag5
(g9
S'\x8f\xc2\xf5(\\O2@'
p714
tp715
Rp716
ag5
(g9
S'H\xe1z\x14\xaeG2@'
p717
tp718
Rp719
ag5
(g9
S'{\x14\xaeG\xe1:2@'
p720
tp721
Rp722
ag5
(g9
S'\xcd\xcc\xcc\xcc\xccL2@'
p723
tp724
Rp725
ag5
(g9
S'\\\x8f\xc2\xf5(\\2@'
p726
tp727
Rp728
ag5
(g9
S'\x9a\x99\x99\x99\x99Y2@'
p729
tp730
Rp731
ag5
(g9
S'ffffff2@'
p732
tp733
Rp734
ag5
(g9
S'33333s2@'
p735
tp736
Rp737
ag5
(g9
S'\x85\xebQ\xb8\x1e\x852@'
p738
tp739
Rp740
ag5
(g9
S'\x14\xaeG\xe1z\x942@'
p741
tp742
Rp743
ag5
(g9
S'\xa4p=\n\xd7\xa32@'
p744
tp745
Rp746
ag5
(g9
S'\xa4p=\n\xd7\xa32@'
p747
tp748
Rp749
ag5
(g9
S'\xe1z\x14\xaeG\xa12@'
p750
tp751
Rp752
ag5
(g9
S'\x14\xaeG\xe1z\x942@'
p753
tp754
Rp755
ag5
(g9
S'\x14\xaeG\xe1z\x942@'
p756
tp757
Rp758
ag5
(g9
S'\x8f\xc2\xf5(\\\x8f2@'
p759
tp760
Rp761
ag5
(g9
S'=\n\xd7\xa3p}2@'
p762
tp763
Rp764
ag5
(g9
S'{\x14\xaeG\xe1z2@'
p765
tp766
Rp767
ag5
(g9
S'ffffff2@'
p768
tp769
Rp770
ag5
(g9
S'\xecQ\xb8\x1e\x85k2@'
p771
tp772
Rp773
ag5
(g9
S')\\\x8f\xc2\xf5h2@'
p774
tp775
Rp776
ag5
(g9
S'\x85\xebQ\xb8\x1e\x852@'
p777
tp778
Rp779
ag5
(g9
S'\xb8\x1e\x85\xebQx2@'
p780
tp781
Rp782
ag5
(g9
S'\xf6(\\\x8f\xc2u2@'
p783
tp784
Rp785
ag5
(g9
S')\\\x8f\xc2\xf5h2@'
p786
tp787
Rp788
ag5
(g9
S'q=\n\xd7\xa3p2@'
p789
tp790
Rp791
ag5
(g9
S'\x00\x00\x00\x00\x00\x802@'
p792
tp793
Rp794
ag5
(g9
S'\xc3\xf5(\\\x8f\x822@'
p795
tp796
Rp797
ag5
(g9
S'\xb8\x1e\x85\xebQx2@'
p798
tp799
Rp800
ag5
(g9
S'\xcd\xcc\xcc\xcc\xcc\x8c2@'
p801
tp802
Rp803
ag5
(g9
S'\xa4p=\n\xd7\xa32@'
p804
tp805
Rp806
ag5
(g9
S'\xb8\x1e\x85\xebQ\xb82@'
p807
tp808
Rp809
ag5
(g9
S'\x14\xaeG\xe1z\xd42@'
p810
tp811
Rp812
ag5
(g9
S'q=\n\xd7\xa3\xf02@'
p813
tp814
Rp815
ag5
(g9
S'q=\n\xd7\xa3\xf02@'
p816
tp817
Rp818
ag5
(g9
S'H\xe1z\x14\xae\x073@'
p819
tp820
Rp821
ag5
(g9
S'fffff\xe62@'
p822
tp823
Rp824
ag5
(g9
S'\xaeG\xe1z\x14\xee2@'
p825
tp826
Rp827
ag5
(g9
S'\x9a\x99\x99\x99\x99\xd92@'
p828
tp829
Rp830
ag5
(g9
S'\x1f\x85\xebQ\xb8\xde2@'
p831
tp832
Rp833
ag5
(g9
S'fffff\xe62@'
p834
tp835
Rp836
ag5
(g9
S'\xaeG\xe1z\x14\xee2@'
p837
tp838
Rp839
ag5
(g9
S'\x9a\x99\x99\x99\x99\xd92@'
p840
tp841
Rp842
ag5
(g9
S')\\\x8f\xc2\xf5\xe82@'
p843
tp844
Rp845
ag5
(g9
S'\x9a\x99\x99\x99\x99\xd92@'
p846
tp847
Rp848
ag5
(g9
S'\xcd\xcc\xcc\xcc\xcc\xcc2@'
p849
tp850
Rp851
ag5
(g9
S'\x9a\x99\x99\x99\x99\xd92@'
p852
tp853
Rp854
ag5
(g9
S')\\\x8f\xc2\xf5\xe82@'
p855
tp856
Rp857
ag5
(g9
S')\\\x8f\xc2\xf5\xe82@'
p858
tp859
Rp860
ag5
(g9
S'\\\x8f\xc2\xf5(\xdc2@'
p861
tp862
Rp863
ag5
(g9
S'\x8f\xc2\xf5(\\\xcf2@'
p864
tp865
Rp866
ag5
(g9
S'\x85\xebQ\xb8\x1e\xc52@'
p867
tp868
Rp869
ag5
(g9
S'R\xb8\x1e\x85\xeb\xd12@'
p870
tp871
Rp872
ag5
(g9
S'R\xb8\x1e\x85\xeb\xd12@'
p873
tp874
Rp875
ag5
(g9
S'\xd7\xa3p=\n\xd72@'
p876
tp877
Rp878
ag5
(g9
S'H\xe1z\x14\xae\x073@'
p879
tp880
Rp881
ag5
(g9
S'\xc3\xf5(\\\x8f\x023@'
p882
tp883
Rp884
ag5
(g9
S'\xe1z\x14\xaeG!3@'
p885
tp886
Rp887
ag5
(g9
S'\\\x8f\xc2\xf5(\x1c3@'
p888
tp889
Rp890
ag5
(g9
S'\x9a\x99\x99\x99\x99\x193@'
p891
tp892
Rp893
ag5
(g9
S'\x14\xaeG\xe1z\x143@'
p894
tp895
Rp896
ag5
(g9
S')\\\x8f\xc2\xf5(3@'
p897
tp898
Rp899
ag5
(g9
S')\\\x8f\xc2\xf5(3@'
p900
tp901
Rp902
ag5
(g9
S'\n\xd7\xa3p=J3@'
p903
tp904
Rp905
ag5
(g9
S'\x8f\xc2\xf5(\\O3@'
p906
tp907
Rp908
ag5
(g9
S'\xc3\xf5(\\\x8fB3@'
p909
tp910
Rp911
ag5
(g9
S'\x85\xebQ\xb8\x1eE3@'
p912
tp913
Rp914
ag5
(g9
S'\xb8\x1e\x85\xebQ83@'
p915
tp916
Rp917
ag5
(g9
S'\xecQ\xb8\x1e\x85+3@'
p918
tp919
Rp920
ag5
(g9
S'fffff&3@'
p921
tp922
Rp923
ag5
(g9
S'\xa4p=\n\xd7#3@'
p924
tp925
Rp926
ag5
(g9
S'\xd7\xa3p=\n\x173@'
p927
tp928
Rp929
ag5
(g9
S'\\\x8f\xc2\xf5(\x1c3@'
p930
tp931
Rp932
ag5
(g9
S'\\\x8f\xc2\xf5(\x1c3@'
p933
tp934
Rp935
ag5
(g9
S'\x8f\xc2\xf5(\\\x0f3@'
p936
tp937
Rp938
ag5
(g9
S'\x1f\x85\xebQ\xb8\x1e3@'
p939
tp940
Rp941
ag5
(g9
S'fffff&3@'
p942
tp943
Rp944
ag5
(g9
S'\x9a\x99\x99\x99\x99\x193@'
p945
tp946
Rp947
ag5
(g9
S'\\\x8f\xc2\xf5(\x1c3@'
p948
tp949
Rp950
ag5
(g9
S'\xa4p=\n\xd7#3@'
p951
tp952
Rp953
ag5
(g9
S'fffff&3@'
p954
tp955
Rp956
ag5
(g9
S'\xc3\xf5(\\\x8fB3@'
p957
tp958
Rp959
ag5
(g9
S'\x85\xebQ\xb8\x1eE3@'
p960
tp961
Rp962
ag5
(g9
S'\xc3\xf5(\\\x8fB3@'
p963
tp964
Rp965
ag5
(g9
S'\x00\x00\x00\x00\x00@3@'
p966
tp967
Rp968
ag5
(g9
S'\xecQ\xb8\x1e\x85+3@'
p969
tp970
Rp971
ag5
(g9
S'3333333@'
p972
tp973
Rp974
ag5
(g9
S'\x85\xebQ\xb8\x1eE3@'
p975
tp976
Rp977
ag5
(g9
S'R\xb8\x1e\x85\xebQ3@'
p978
tp979
Rp980
ag5
(g9
S'\xe1z\x14\xaeGa3@'
p981
tp982
Rp983
ag5
(g9
S'\x1f\x85\xebQ\xb8^3@'
p984
tp985
Rp986
ag5
(g9
S'\xa4p=\n\xd7c3@'
p987
tp988
Rp989
ag5
(g9
S'q=\n\xd7\xa3p3@'
p990
tp991
Rp992
ag5
(g9
S'{\x14\xaeG\xe1z3@'
p993
tp994
Rp995
ag5
(g9
S'H\xe1z\x14\xae\x873@'
p996
tp997
Rp998
ag5
(g9
S'\n\xd7\xa3p=\x8a3@'
p999
tp1000
Rp1001
ag5
(g9
S'H\xe1z\x14\xae\x873@'
p1002
tp1003
Rp1004
ag5
(g9
S'\xcd\xcc\xcc\xcc\xcc\x8c3@'
p1005
tp1006
Rp1007
ag5
(g9
S'\x1f\x85\xebQ\xb8\x9e3@'
p1008
tp1009
Rp1010
ag5
(g9
S'\x9a\x99\x99\x99\x99\x993@'
p1011
tp1012
Rp1013
ag5
(g9
S'\\\x8f\xc2\xf5(\x9c3@'
p1014
tp1015
Rp1016
ag5
(g9
S'R\xb8\x1e\x85\xeb\x913@'
p1017
tp1018
Rp1019
ag5
(g9
S'\xe1z\x14\xaeG\xa13@'
p1020
tp1021
Rp1022
ag5
(g9
S'\xecQ\xb8\x1e\x85\xab3@'
p1023
tp1024
Rp1025
ag5
(g9
S'=\n\xd7\xa3p\xbd3@'
p1026
tp1027
Rp1028
ag5
(g9
S'\xc3\xf5(\\\x8f\xc23@'
p1029
tp1030
Rp1031
ag5
(g9
S'R\xb8\x1e\x85\xeb\xd13@'
p1032
tp1033
Rp1034
ag5
(g9
S'\x8f\xc2\xf5(\\\xcf3@'
p1035
tp1036
Rp1037
ag5
(g9
S'\x8f\xc2\xf5(\\\xcf3@'
p1038
tp1039
Rp1040
ag5
(g9
S'\x14\xaeG\xe1z\xd43@'
p1041
tp1042
Rp1043
ag5
(g9
S'\xd7\xa3p=\n\xd73@'
p1044
tp1045
Rp1046
ag5
(g9
S'\xe1z\x14\xaeG\xe13@'
p1047
tp1048
Rp1049
ag5
(g9
S'\\\x8f\xc2\xf5(\xdc3@'
p1050
tp1051
Rp1052
ag5
(g9
S'\xe1z\x14\xaeG\xe13@'
p1053
tp1054
Rp1055
ag5
(g9
S'q=\n\xd7\xa3\xf03@'
p1056
tp1057
Rp1058
ag5
(g9
S'\xf6(\\\x8f\xc2\xf53@'
p1059
tp1060
Rp1061
ag5
(g9
S'q=\n\xd7\xa3\xf03@'
p1062
tp1063
Rp1064
ag5
(g9
S'\xe1z\x14\xaeG\xe13@'
p1065
tp1066
Rp1067
ag5
(g9
S')\\\x8f\xc2\xf5\xe83@'
p1068
tp1069
Rp1070
ag5
(g9
S'q=\n\xd7\xa3\xf03@'
p1071
tp1072
Rp1073
ag5
(g9
S'q=\n\xd7\xa3\xf03@'
p1074
tp1075
Rp1076
ag5
(g9
S'\xaeG\xe1z\x14\xee3@'
p1077
tp1078
Rp1079
ag5
(g9
S'33333\xf33@'
p1080
tp1081
Rp1082
ag5
(g9
S'\xf6(\\\x8f\xc2\xf53@'
p1083
tp1084
Rp1085
ag5
(g9
S'\xe1z\x14\xaeG\xe13@'
p1086
tp1087
Rp1088
ag5
(g9
S'\xaeG\xe1z\x14\xee3@'
p1089
tp1090
Rp1091
ag5
(g9
S'q=\n\xd7\xa3\xf03@'
p1092
tp1093
Rp1094
ag5
(g9
S'fffff\xe63@'
p1095
tp1096
Rp1097
ag5
(g9
S'\xa4p=\n\xd7\xe33@'
p1098
tp1099
Rp1100
ag5
(g9
S'\xe1z\x14\xaeG\xe13@'
p1101
tp1102
Rp1103
ag5
(g9
S'\\\x8f\xc2\xf5(\xdc3@'
p1104
tp1105
Rp1106
ag5
(g9
S'\x9a\x99\x99\x99\x99\xd93@'
p1107
tp1108
Rp1109
ag5
(g9
S'R\xb8\x1e\x85\xeb\xd13@'
p1110
tp1111
Rp1112
ag5
(g9
S'\x1f\x85\xebQ\xb8\xde3@'
p1113
tp1114
Rp1115
ag5
(g9
S'\xe1z\x14\xaeG\xe13@'
p1116
tp1117
Rp1118
ag5
(g9
S'\xaeG\xe1z\x14\xee3@'
p1119
tp1120
Rp1121
ag5
(g9
S'\xa4p=\n\xd7\xe33@'
p1122
tp1123
Rp1124
ag5
(g9
S'\x1f\x85\xebQ\xb8\xde3@'
p1125
tp1126
Rp1127
ag5
(g9
S'\xa4p=\n\xd7\xe33@'
p1128
tp1129
Rp1130
ag5
(g9
S'\xe1z\x14\xaeG\xe13@'
p1131
tp1132
Rp1133
ag5
(g9
S'\xa4p=\n\xd7\xe33@'
p1134
tp1135
Rp1136
ag5
(g9
S'fffff\xe63@'
p1137
tp1138
Rp1139
ag5
(g9
S'q=\n\xd7\xa3\xf03@'
p1140
tp1141
Rp1142
ag5
(g9
S'33333\xf33@'
p1143
tp1144
Rp1145
ag5
(g9
S'\xe1z\x14\xaeG\xe13@'
p1146
tp1147
Rp1148
ag5
(g9
S'\xecQ\xb8\x1e\x85\xeb3@'
p1149
tp1150
Rp1151
ag5
(g9
S'\xa4p=\n\xd7\xe33@'
p1152
tp1153
Rp1154
ag5
(g9
S')\\\x8f\xc2\xf5\xe83@'
p1155
tp1156
Rp1157
ag5
(g9
S'\x1f\x85\xebQ\xb8\xde3@'
p1158
tp1159
Rp1160
ag5
(g9
S'\xe1z\x14\xaeG\xe13@'
p1161
tp1162
Rp1163
ag5
(g9
S'q=\n\xd7\xa3\xf03@'
p1164
tp1165
Rp1166
ag5
(g9
S')\\\x8f\xc2\xf5\xe83@'
p1167
tp1168
Rp1169
ag5
(g9
S'\xaeG\xe1z\x14\xee3@'
p1170
tp1171
Rp1172
ag5
(g9
S'fffff\xe63@'
p1173
tp1174
Rp1175
ag5
(g9
S')\\\x8f\xc2\xf5\xe83@'
p1176
tp1177
Rp1178
ag5
(g9
S'\xecQ\xb8\x1e\x85\xeb3@'
p1179
tp1180
Rp1181
ag5
(g9
S'\xf6(\\\x8f\xc2\xf53@'
p1182
tp1183
Rp1184
ag5
(g9
S'\xf6(\\\x8f\xc2\xf53@'
p1185
tp1186
Rp1187
ag5
(g9
S'q=\n\xd7\xa3\xf03@'
p1188
tp1189
Rp1190
ag5
(g9
S'33333\xf33@'
p1191
tp1192
Rp1193
ag5
(g9
S'\xaeG\xe1z\x14\xee3@'
p1194
tp1195
Rp1196
ag5
(g9
S'\xecQ\xb8\x1e\x85\xeb3@'
p1197
tp1198
Rp1199
ag5
(g9
S'\x00\x00\x00\x00\x00\x004@'
p1200
tp1201
Rp1202
ag5
(g9
S'\x85\xebQ\xb8\x1e\x054@'
p1203
tp1204
Rp1205
ag5
(g9
S'\n\xd7\xa3p=\n4@'
p1206
tp1207
Rp1208
ag5
(g9
S'\x9a\x99\x99\x99\x99\x194@'
p1209
tp1210
Rp1211
ag5
(g9
S'\x1f\x85\xebQ\xb8\x1e4@'
p1212
tp1213
Rp1214
ag5
(g9
S'\\\x8f\xc2\xf5(\x1c4@'
p1215
tp1216
Rp1217
ag5
(g9
S'R\xb8\x1e\x85\xeb\x114@'
p1218
tp1219
Rp1220
ag5
(g9
S'\x9a\x99\x99\x99\x99\x194@'
p1221
tp1222
Rp1223
ag5
(g9
S'\x14\xaeG\xe1z\x144@'
p1224
tp1225
Rp1226
ag5
(g9
S'\xe1z\x14\xaeG!4@'
p1227
tp1228
Rp1229
ag5
(g9
S'\xaeG\xe1z\x14.4@'
p1230
tp1231
Rp1232
ag5
(g9
S'\xaeG\xe1z\x14.4@'
p1233
tp1234
Rp1235
ag5
(g9
S'\xaeG\xe1z\x14.4@'
p1236
tp1237
Rp1238
ag5
(g9
S'\x00\x00\x00\x00\x00@4@'
p1239
tp1240
Rp1241
ag5
(g9
S'=\n\xd7\xa3p=4@'
p1242
tp1243
Rp1244
ag5
(g9
S'\x85\xebQ\xb8\x1eE4@'
p1245
tp1246
Rp1247
ag5
(g9
S'H\xe1z\x14\xaeG4@'
p1248
tp1249
Rp1250
ag5
(g9
S'\x8f\xc2\xf5(\\O4@'
p1251
tp1252
Rp1253
ag5
(g9
S'\xd7\xa3p=\nW4@'
p1254
tp1255
Rp1256
ag5
(g9
S'\x1f\x85\xebQ\xb8^4@'
p1257
tp1258
Rp1259
ag5
(g9
S'\x9a\x99\x99\x99\x99Y4@'
p1260
tp1261
Rp1262
ag5
(g9
S'\x9a\x99\x99\x99\x99Y4@'
p1263
tp1264
Rp1265
ag5
(g9
S'ffffff4@'
p1266
tp1267
Rp1268
ag5
(g9
S'\xf6(\\\x8f\xc2u4@'
p1269
tp1270
Rp1271
ag5
(g9
S'\xecQ\xb8\x1e\x85k4@'
p1272
tp1273
Rp1274
ag5
(g9
S'\xaeG\xe1z\x14n4@'
p1275
tp1276
Rp1277
ag5
(g9
S'q=\n\xd7\xa3p4@'
p1278
tp1279
Rp1280
ag5
(g9
S'\xaeG\xe1z\x14n4@'
p1281
tp1282
Rp1283
ag5
(g9
S'33333s4@'
p1284
tp1285
Rp1286
ag5
(g9
S'ffffff4@'
p1287
tp1288
Rp1289
ag5
(g9
S'\xe1z\x14\xaeGa4@'
p1290
tp1291
Rp1292
ag5
(g9
S'\x1f\x85\xebQ\xb8^4@'
p1293
tp1294
Rp1295
ag5
(g9
S'\\\x8f\xc2\xf5(\\4@'
p1296
tp1297
Rp1298
ag5
(g9
S'\xd7\xa3p=\nW4@'
p1299
tp1300
Rp1301
ag5
(g9
S'R\xb8\x1e\x85\xebQ4@'
p1302
tp1303
Rp1304
ag5
(g9
S'\xcd\xcc\xcc\xcc\xccL4@'
p1305
tp1306
Rp1307
ag5
(g9
S'\x85\xebQ\xb8\x1eE4@'
p1308
tp1309
Rp1310
ag5
(g9
S'\x00\x00\x00\x00\x00@4@'
p1311
tp1312
Rp1313
ag5
(g9
S'\xb8\x1e\x85\xebQ84@'
p1314
tp1315
Rp1316
ag5
(g9
S'q=\n\xd7\xa304@'
p1317
tp1318
Rp1319
ag5
(g9
S'3333334@'
p1320
tp1321
Rp1322
ag5
(g9
S'\xa4p=\n\xd7#4@'
p1323
tp1324
Rp1325
ag5
(g9
S'3333334@'
p1326
tp1327
Rp1328
ag5
(g9
S'q=\n\xd7\xa304@'
p1329
tp1330
Rp1331
ag5
(g9
S'\xf6(\\\x8f\xc254@'
p1332
tp1333
Rp1334
ag5
(g9
S'\x00\x00\x00\x00\x00@4@'
p1335
tp1336
Rp1337
ag5
(g9
S'=\n\xd7\xa3p=4@'
p1338
tp1339
Rp1340
ag5
(g9
S'\x9a\x99\x99\x99\x99Y4@'
p1341
tp1342
Rp1343
ag5
(g9
S'\xe1z\x14\xaeGa4@'
p1344
tp1345
Rp1346
ag5
(g9
S'\x1f\x85\xebQ\xb8^4@'
p1347
tp1348
Rp1349
ag5
(g9
S')\\\x8f\xc2\xf5h4@'
p1350
tp1351
Rp1352
ag5
(g9
S'\xaeG\xe1z\x14n4@'
p1353
tp1354
Rp1355
ag5
(g9
S'33333s4@'
p1356
tp1357
Rp1358
ag5
(g9
S'=\n\xd7\xa3p}4@'
p1359
tp1360
Rp1361
ag5
(g9
S'\x85\xebQ\xb8\x1e\x854@'
p1362
tp1363
Rp1364
ag5
(g9
S'\n\xd7\xa3p=\x8a4@'
p1365
tp1366
Rp1367
ag5
(g9
S'\x14\xaeG\xe1z\x944@'
p1368
tp1369
Rp1370
ag5
(g9
S'\xd7\xa3p=\n\x974@'
p1371
tp1372
Rp1373
ag5
(g9
S'\x1f\x85\xebQ\xb8\x9e4@'
p1374
tp1375
Rp1376
ag5
(g9
S'\xe1z\x14\xaeG\xa14@'
p1377
tp1378
Rp1379
ag5
(g9
S'fffff\xa64@'
p1380
tp1381
Rp1382
ag5
(g9
S')\\\x8f\xc2\xf5\xa84@'
p1383
tp1384
Rp1385
ag5
(g9
S'fffff\xa64@'
p1386
tp1387
Rp1388
ag5
(g9
S'\xa4p=\n\xd7\xa34@'
p1389
tp1390
Rp1391
ag5
(g9
S'\xa4p=\n\xd7\xa34@'
p1392
tp1393
Rp1394
ag5
(g9
S'\xe1z\x14\xaeG\xa14@'
p1395
tp1396
Rp1397
ag5
(g9
S'\xa4p=\n\xd7\xa34@'
p1398
tp1399
Rp1400
ag5
(g9
S'\xd7\xa3p=\n\x974@'
p1401
tp1402
Rp1403
ag5
(g9
S'\x14\xaeG\xe1z\x944@'
p1404
tp1405
Rp1406
ag5
(g9
S'\x8f\xc2\xf5(\\\x8f4@'
p1407
tp1408
Rp1409
ag5
(g9
S'R\xb8\x1e\x85\xeb\x914@'
p1410
tp1411
Rp1412
ag5
(g9
S'\n\xd7\xa3p=\x8a4@'
p1413
tp1414
Rp1415
ag5
(g9
S'\x8f\xc2\xf5(\\\x8f4@'
p1416
tp1417
Rp1418
ag5
(g9
S'\xcd\xcc\xcc\xcc\xcc\x8c4@'
p1419
tp1420
Rp1421
ag5
(g9
S'\x85\xebQ\xb8\x1e\x854@'
p1422
tp1423
Rp1424
ag5
(g9
S'\xcd\xcc\xcc\xcc\xcc\x8c4@'
p1425
tp1426
Rp1427
ag5
(g9
S'\xcd\xcc\xcc\xcc\xcc\x8c4@'
p1428
tp1429
Rp1430
ag5
(g9
S'\x8f\xc2\xf5(\\\x8f4@'
p1431
tp1432
Rp1433
ag5
(g9
S'\xcd\xcc\xcc\xcc\xcc\x8c4@'
p1434
tp1435
Rp1436
ag5
(g9
S'\xcd\xcc\xcc\xcc\xcc\x8c4@'
p1437
tp1438
Rp1439
ag5
(g9
S'\x8f\xc2\xf5(\\\x8f4@'
p1440
tp1441
Rp1442
ag5
(g9
S'R\xb8\x1e\x85\xeb\x914@'
p1443
tp1444
Rp1445
ag5
(g9
S'\x9a\x99\x99\x99\x99\x994@'
p1446
tp1447
Rp1448
ag5
(g9
S'\x9a\x99\x99\x99\x99\x994@'
p1449
tp1450
Rp1451
ag5
(g9
S'\xe1z\x14\xaeG\xa14@'
p1452
tp1453
Rp1454
ag5
(g9
S'\xe1z\x14\xaeG\xa14@'
p1455
tp1456
Rp1457
ag5
(g9
S')\\\x8f\xc2\xf5\xa84@'
p1458
tp1459
Rp1460
ag5
(g9
S'\xaeG\xe1z\x14\xae4@'
p1461
tp1462
Rp1463
ag5
(g9
S'q=\n\xd7\xa3\xb04@'
p1464
tp1465
Rp1466
ag5
(g9
S'\xf6(\\\x8f\xc2\xb54@'
p1467
tp1468
Rp1469
ag5
(g9
S'=\n\xd7\xa3p\xbd4@'
p1470
tp1471
Rp1472
ag5
(g9
S'\x85\xebQ\xb8\x1e\xc54@'
p1473
tp1474
Rp1475
ag5
(g9
S'\n\xd7\xa3p=\xca4@'
p1476
tp1477
Rp1478
ag5
(g9
S'\n\xd7\xa3p=\xca4@'
p1479
tp1480
Rp1481
ag5
(g9
S'H\xe1z\x14\xae\xc74@'
p1482
tp1483
Rp1484
ag5
(g9
S'\xcd\xcc\xcc\xcc\xcc\xcc4@'
p1485
tp1486
Rp1487
ag5
(g9
S'\xcd\xcc\xcc\xcc\xcc\xcc4@'
p1488
tp1489
Rp1490
ag5
(g9
S'H\xe1z\x14\xae\xc74@'
p1491
tp1492
Rp1493
ag5
(g9
S'H\xe1z\x14\xae\xc74@'
p1494
tp1495
Rp1496
asS'learning_rate_log'
p1497
(lp1498
F0.0001
aF0.0001
aF0.0001
aF0.0001
aF0.0001
aF0.0001
aF0.0001
aF0.0001
aF0.0001
aF0.0001
aF0.0001
aF0.0001
aF0.0001
aF0.0001
aF0.0001
aF0.0001
aF0.0001
aF0.0001
aF0.0001
aF0.0001
aF0.0001
aF0.0001
aF0.0001
aF0.0001
aF0.0001
aF0.0001
aF0.0001
aF0.0001
aF0.0001
aF0.0001
aF0.0001
aF0.0001
aF0.0001
aF0.0001
aF0.0001
aF0.0001
aF0.0001
aF0.0001
aF0.0001
aF0.0001
aF0.0001
aF0.0001
aF0.0001
aF0.0001
aF0.0001
aF0.0001
aF0.0001
aF0.0001
aF0.0001
aF0.0001
aF0.0001
aF0.0001
aF0.0001
aF0.0001
aF0.0001
aF0.0001
aF0.0001
aF0.0001
aF0.0001
aF0.0001
aF0.0001
aF0.0001
aF0.0001
aF0.0001
aF0.0001
aF0.0001
aF0.0001
aF0.0001
aF0.0001
aF0.0001
aF0.0001
aF0.0001
aF0.0001
aF0.0001
aF0.0001
aF0.0001
aF0.0001
aF0.0001
aF0.0001
aF0.0001
aF0.0001
aF0.0001
aF0.0001
aF0.0001
aF0.0001
aF0.0001
aF0.0001
aF0.0001
aF0.0001
aF0.0001
aF0.0001
aF0.0001
aF0.0001
aF0.0001
aF0.0001
aF9.9875e-05
aF9.975e-05
aF9.962500000000001e-05
aF9.95e-05
aF9.9375e-05
aF9.925e-05
aF9.912500000000001e-05
aF9.900000000000001e-05
aF9.8875e-05
aF9.875e-05
aF9.8625e-05
aF9.850000000000001e-05
aF9.8375e-05
aF9.825e-05
aF9.8125e-05
aF9.800000000000001e-05
aF9.787500000000001e-05
aF9.775e-05
aF9.7625e-05
aF9.75e-05
aF9.737500000000001e-05
aF9.725e-05
aF9.7125e-05
aF9.7e-05
aF9.687500000000001e-05
aF9.675000000000001e-05
aF9.6625e-05
aF9.65e-05
aF9.6375e-05
aF9.625000000000001e-05
aF9.6125e-05
aF9.6e-05
aF9.5875e-05
aF9.575000000000001e-05
aF9.562500000000001e-05
aF9.55e-05
aF9.5375e-05
aF9.525000000000001e-05
aF9.512500000000001e-05
aF9.5e-05
aF9.4875e-05
aF9.475e-05
aF9.462500000000001e-05
aF9.45e-05
aF9.4375e-05
aF9.425e-05
aF9.412500000000001e-05
aF9.400000000000001e-05
aF9.3875e-05
aF9.375e-05
aF9.3625e-05
aF9.350000000000001e-05
aF9.3375e-05
aF9.325e-05
aF9.3125e-05
aF9.300000000000001e-05
aF9.287500000000001e-05
aF9.275e-05
aF9.2625e-05
aF9.25e-05
aF9.237500000000001e-05
aF9.225e-05
aF9.2125e-05
aF9.2e-05
aF9.1875e-05
aF9.175000000000001e-05
aF9.1625e-05
aF9.15e-05
aF9.137500000000001e-05
aF9.125000000000001e-05
aF9.1125e-05
aF9.1e-05
aF9.0875e-05
aF9.075000000000001e-05
aF9.062500000000001e-05
aF9.05e-05
aF9.0375e-05
aF9.025e-05
aF9.012500000000001e-05
aF9e-05
aF8.9875e-05
aF8.975e-05
aF8.962500000000001e-05
aF8.950000000000001e-05
aF8.9375e-05
aF8.925e-05
aF8.912500000000001e-05
aF8.900000000000001e-05
aF8.8875e-05
aF8.875e-05
aF8.8625e-05
aF8.850000000000001e-05
aF8.837500000000001e-05
aF8.825e-05
aF8.8125e-05
aF8.8e-05
aF8.787500000000001e-05
aF8.775e-05
aF8.7625e-05
aF8.75e-05
aF8.737500000000001e-05
aF8.725e-05
aF8.7125e-05
aF8.7e-05
aF8.687500000000001e-05
aF8.675000000000001e-05
aF8.6625e-05
aF8.65e-05
aF8.6375e-05
aF8.625000000000001e-05
aF8.6125e-05
aF8.6e-05
aF8.5875e-05
aF8.575000000000001e-05
aF8.562500000000001e-05
aF8.55e-05
aF8.5375e-05
aF8.525000000000001e-05
aF8.512500000000001e-05
aF8.5e-05
aF8.4875e-05
aF8.475e-05
aF8.462500000000001e-05
aF8.450000000000001e-05
aF8.4375e-05
aF8.425e-05
aF8.4125e-05
aF8.400000000000001e-05
aF8.3875e-05
aF8.375e-05
aF8.3625e-05
aF8.35e-05
aF8.337500000000001e-05
aF8.325e-05
aF8.3125e-05
aF8.3e-05
aF8.2875e-05
aF8.275e-05
aF8.2625e-05
aF8.25e-05
aF8.237500000000001e-05
aF8.225000000000001e-05
aF8.2125e-05
aF8.2e-05
aF8.1875e-05
aF8.175000000000001e-05
aF8.1625e-05
aF8.15e-05
aF8.1375e-05
aF8.125e-05
aF8.112500000000001e-05
aF8.1e-05
aF8.0875e-05
aF8.075000000000001e-05
aF8.062500000000001e-05
aF8.05e-05
aF8.0375e-05
aF8.025e-05
aF8.012500000000001e-05
aF8e-05
aF7.9875e-05
aF7.975e-05
aF7.9625e-05
aF7.950000000000001e-05
aF7.9375e-05
aF7.925e-05
aF7.912500000000001e-05
aF7.900000000000001e-05
aF7.8875e-05
aF7.875e-05
aF7.8625e-05
aF7.850000000000001e-05
aF7.837500000000001e-05
aF7.825e-05
aF7.8125e-05
aF7.8e-05
aF7.787500000000001e-05
aF7.775e-05
aF7.7625e-05
aF7.75e-05
aF7.7375e-05
aF7.725000000000001e-05
aF7.7125e-05
aF7.7e-05
aF7.6875e-05
aF7.675e-05
aF7.6625e-05
aF7.65e-05
aF7.6375e-05
aF7.625000000000001e-05
aF7.612500000000001e-05
aF7.6e-05
aF7.5875e-05
aF7.575e-05
aF7.562500000000001e-05
aF7.55e-05
aF7.5375e-05
aF7.525e-05
aF7.5125e-05
aF7.500000000000001e-05
aF7.4875e-05
aF7.475e-05
aF7.462500000000001e-05
aF7.45e-05
aF7.4375e-05
aF7.425e-05
aF7.4125e-05
aF7.400000000000001e-05
aF7.3875e-05
aF7.375e-05
aF7.3625e-05
aF7.35e-05
aF7.337500000000001e-05
aF7.325e-05
aF7.3125e-05
aF7.3e-05
aF7.2875e-05
aF7.275e-05
aF7.2625e-05
aF7.25e-05
aF7.237500000000001e-05
aF7.225e-05
aF7.2125e-05
aF7.2e-05
aF7.1875e-05
aF7.175000000000001e-05
aF7.1625e-05
aF7.15e-05
aF7.1375e-05
aF7.125000000000001e-05
aF7.112500000000001e-05
aF7.1e-05
aF7.0875e-05
aF7.075000000000001e-05
aF7.0625e-05
aF7.05e-05
aF7.0375e-05
aF7.025e-05
aF7.0125e-05
aF7.000000000000001e-05
aF6.9875e-05
aF6.975e-05
aF6.9625e-05
aF6.950000000000001e-05
aF6.937499999999999e-05
aF6.925e-05
aF6.9125e-05
aF6.9e-05
aF6.887500000000001e-05
aF6.875e-05
aF6.8625e-05
aF6.850000000000001e-05
aF6.837500000000001e-05
aF6.825e-05
aF6.8125e-05
aF6.8e-05
aF6.787500000000001e-05
aF6.775e-05
aF6.7625e-05
aF6.75e-05
aF6.7375e-05
aF6.725000000000001e-05
aF6.7125e-05
aF6.7e-05
aF6.687500000000001e-05
aF6.675e-05
aF6.6625e-05
aF6.65e-05
aF6.6375e-05
aF6.625e-05
aF6.6125e-05
aF6.6e-05
aF6.5875e-05
aF6.575e-05
aF6.562500000000001e-05
aF6.55e-05
aF6.5375e-05
aF6.525000000000001e-05
aF6.5125e-05
aF6.500000000000001e-05
aF6.4875e-05
aF6.475e-05
aF6.462500000000001e-05
aF6.45e-05
aF6.4375e-05
aF6.425e-05
aF6.4125e-05
aF6.400000000000001e-05
aF6.3875e-05
aF6.375e-05
aF6.3625e-05
aF6.35e-05
aF6.337500000000001e-05
aF6.325e-05
aF6.3125e-05
aF6.300000000000001e-05
aF6.2875e-05
aF6.275000000000001e-05
aF6.262499999999999e-05
aF6.25e-05
aF6.237500000000001e-05
aF6.225e-05
aF6.2125e-05
aF6.2e-05
aF6.1875e-05
aF6.175000000000001e-05
aF6.162500000000001e-05
aF6.15e-05
aF6.137500000000001e-05
aF6.125e-05
aF6.112500000000001e-05
aF6.1e-05
aF6.0875e-05
aF6.075e-05
aF6.0625e-05
aF6.05e-05
aF6.0375000000000004e-05
aF6.025e-05
aF6.0125000000000005e-05
aF6e-05
aF5.9875000000000005e-05
aF5.975e-05
aF5.9625000000000006e-05
aF5.95e-05
aF5.9375e-05
aF5.9250000000000004e-05
aF5.9125e-05
aF5.9000000000000004e-05
aF5.8875e-05
aF5.8750000000000005e-05
aF5.8625e-05
aF5.8500000000000006e-05
aF5.8375e-05
aF5.8250000000000006e-05
aF5.8125e-05
aF5.800000000000001e-05
aF5.7875000000000004e-05
aF5.775e-05
aF5.7625e-05
aF5.75e-05
aF5.7375e-05
aF5.725e-05
aF5.7125e-05
aF5.7e-05
aF5.6875e-05
aF5.6750000000000004e-05
aF5.6625e-05
aF5.6500000000000005e-05
aF5.6375e-05
aF5.6250000000000005e-05
aF5.6125e-05
aF5.6e-05
aF5.5875e-05
aF5.575e-05
aF5.5625000000000004e-05
aF5.55e-05
aF5.5375000000000004e-05
aF5.525e-05
aF5.5125000000000005e-05
aF5.5e-05
aF5.4875000000000006e-05
aF5.475e-05
aF5.4625000000000006e-05
aF5.45e-05
aF5.437500000000001e-05
aF5.4250000000000004e-05
aF5.4125e-05
aF5.4e-05
aF5.3875e-05
aF5.375e-05
aF5.3625e-05
aF5.35e-05
aF5.3375e-05
aF5.325e-05
aF5.3125000000000004e-05
aF5.300000000000001e-05
aF5.2875000000000005e-05
aF5.275000000000001e-05
aF5.2625000000000005e-05
aF5.25e-05
aF5.2375e-05
aF5.225e-05
aF5.2125e-05
aF5.2000000000000004e-05
aF5.1875e-05
aF5.1750000000000004e-05
aF5.1625e-05
aF5.1500000000000005e-05
aF5.1375e-05
aF5.1250000000000006e-05
aF5.1125e-05
aF5.1000000000000006e-05
aF5.0875e-05
aF5.075e-05
aF5.0625e-05
aF5.05e-05
aF5.0375e-05
aF5.025e-05
aF5.0125e-05
aF5e-05
asS'exploration_log'
p1499
(lp1500
F0.946
aF0.9369999999999999
aF0.9279999999999999
aF0.919
aF0.91
aF0.901
aF0.892
aF0.883
aF0.874
aF0.865
aF0.856
aF0.847
aF0.838
aF0.829
aF0.82
aF0.8109999999999999
aF0.802
aF0.7929999999999999
aF0.784
aF0.775
aF0.766
aF0.757
aF0.748
aF0.739
aF0.73
aF0.721
aF0.712
aF0.703
aF0.694
aF0.685
aF0.6759999999999999
aF0.667
aF0.6579999999999999
aF0.649
aF0.6399999999999999
aF0.631
aF0.622
aF0.613
aF0.604
aF0.595
aF0.586
aF0.577
aF0.5680000000000001
aF0.5589999999999999
aF0.55
aF0.5409999999999999
aF0.532
aF0.5229999999999999
aF0.514
aF0.5049999999999999
aF0.4959999999999999
aF0.487
aF0.478
aF0.469
aF0.45999999999999996
aF0.45099999999999996
aF0.44199999999999995
aF0.43299999999999994
aF0.42399999999999993
aF0.4149999999999999
aF0.4059999999999999
aF0.3969999999999999
aF0.3879999999999999
aF0.379
aF0.37
aF0.361
aF0.352
aF0.34299999999999997
aF0.33399999999999996
aF0.32499999999999996
aF0.31599999999999995
aF0.30699999999999994
aF0.29799999999999993
aF0.2889999999999999
aF0.2799999999999999
aF0.2709999999999999
aF0.262
aF0.253
aF0.244
aF0.235
aF0.22599999999999998
aF0.21699999999999997
aF0.20799999999999996
aF0.19899999999999995
aF0.18999999999999995
aF0.18099999999999994
aF0.17199999999999993
aF0.16299999999999992
aF0.15400000000000003
aF0.14500000000000002
aF0.136
aF0.127
aF0.118
aF0.10899999999999999
aF0.1
aF0.099775
aF0.09955
aF0.09932500000000001
aF0.09910000000000001
aF0.098875
aF0.09865
aF0.098425
aF0.09820000000000001
aF0.097975
aF0.09775
aF0.097525
aF0.09730000000000001
aF0.09707500000000001
aF0.09685
aF0.096625
aF0.0964
aF0.09617500000000001
aF0.09595000000000001
aF0.095725
aF0.0955
aF0.095275
aF0.09505000000000001
aF0.094825
aF0.0946
aF0.094375
aF0.09415000000000001
aF0.09392500000000001
aF0.0937
aF0.093475
aF0.09325
aF0.09302500000000001
aF0.09280000000000001
aF0.092575
aF0.09235
aF0.09212500000000001
aF0.09190000000000001
aF0.091675
aF0.09145
aF0.091225
aF0.091
aF0.09077500000000001
aF0.09055
aF0.090325
aF0.0901
aF0.08987500000000001
aF0.08965000000000001
aF0.089425
aF0.0892
aF0.088975
aF0.08875000000000001
aF0.088525
aF0.0883
aF0.088075
aF0.08785
aF0.08762500000000001
aF0.0874
aF0.087175
aF0.08695
aF0.08672500000000001
aF0.08650000000000001
aF0.086275
aF0.08605
aF0.085825
aF0.08560000000000001
aF0.085375
aF0.08515
aF0.084925
aF0.0847
aF0.08447500000000001
aF0.08425
aF0.084025
aF0.0838
aF0.08357500000000001
aF0.08335000000000001
aF0.083125
aF0.0829
aF0.082675
aF0.08245
aF0.082225
aF0.082
aF0.081775
aF0.08155000000000001
aF0.08132500000000001
aF0.0811
aF0.080875
aF0.08065
aF0.080425
aF0.08020000000000001
aF0.079975
aF0.07975
aF0.079525
aF0.07930000000000001
aF0.079075
aF0.07885
aF0.078625
aF0.0784
aF0.07817500000000001
aF0.07795
aF0.077725
aF0.0775
aF0.07727500000000001
aF0.07705000000000001
aF0.076825
aF0.0766
aF0.076375
aF0.07615
aF0.075925
aF0.0757
aF0.075475
aF0.07525
aF0.07502500000000001
aF0.0748
aF0.074575
aF0.07435
aF0.074125
aF0.07390000000000001
aF0.073675
aF0.07345
aF0.073225
aF0.07300000000000001
aF0.072775
aF0.07255
aF0.072325
aF0.0721
aF0.071875
aF0.07165
aF0.071425
aF0.0712
aF0.070975
aF0.07075000000000001
aF0.070525
aF0.0703
aF0.070075
aF0.06985
aF0.06962499999999999
aF0.0694
aF0.069175
aF0.06895000000000001
aF0.06872500000000001
aF0.0685
aF0.068275
aF0.06805
aF0.067825
aF0.0676
aF0.067375
aF0.06715
aF0.06692500000000001
aF0.06670000000000001
aF0.066475
aF0.06625
aF0.066025
aF0.0658
aF0.065575
aF0.06534999999999999
aF0.065125
aF0.0649
aF0.06467500000000001
aF0.06445000000000001
aF0.064225
aF0.064
aF0.063775
aF0.06355
aF0.063325
aF0.0631
aF0.062875
aF0.06265000000000001
aF0.062425
aF0.062200000000000005
aF0.061975
aF0.06175
aF0.061525
aF0.0613
aF0.061075000000000004
aF0.06085
aF0.060625
aF0.0604
aF0.060175
aF0.05995
aF0.059725
aF0.0595
aF0.059275
aF0.05905
aF0.058825
aF0.0586
aF0.058374999999999996
aF0.05815
aF0.057925
aF0.0577
aF0.057475000000000005
aF0.05725
aF0.057025
aF0.0568
aF0.056575
aF0.056350000000000004
aF0.056125
aF0.0559
aF0.055675
aF0.05545
aF0.055225
aF0.055
aF0.054775000000000004
aF0.05455
aF0.054325000000000005
aF0.0541
aF0.053875000000000006
aF0.053649999999999996
aF0.053425
aF0.0532
aF0.052975
aF0.05275
aF0.052525
aF0.0523
aF0.052075
aF0.05185
aF0.051625000000000004
aF0.051399999999999994
aF0.051175
aF0.050949999999999995
aF0.050725
aF0.050499999999999996
aF0.050275
aF0.05005
aF0.049825
aF0.0496
aF0.049375
aF0.049150000000000006
aF0.048924999999999996
aF0.04870000000000001
aF0.048475
aF0.04825
aF0.048025
aF0.0478
aF0.047575
aF0.04735
aF0.047125
aF0.046900000000000004
aF0.046674999999999994
aF0.04645
aF0.046224999999999995
aF0.046
aF0.045774999999999996
aF0.04555
aF0.045325
aF0.0451
aF0.044875
aF0.04465
aF0.04442499999999999
aF0.044199999999999996
aF0.04397499999999999
aF0.04375
aF0.043525
aF0.0433
aF0.043075
aF0.04285
aF0.042625
aF0.0424
aF0.042175000000000004
aF0.041949999999999994
aF0.041725000000000005
aF0.041499999999999995
aF0.041275
aF0.041049999999999996
aF0.040825
aF0.0406
aF0.040375
aF0.04015
aF0.039925
aF0.03969999999999999
aF0.039474999999999996
aF0.03924999999999999
aF0.039025
aF0.038799999999999994
aF0.038575
aF0.038349999999999995
aF0.038125
aF0.0379
aF0.037675
aF0.03745
aF0.037224999999999994
aF0.037000000000000005
aF0.036775
aF0.03655
aF0.036324999999999996
aF0.03610000000000001
aF0.03587499999999999
aF0.03565
aF0.035425
aF0.035199999999999995
aF0.03497499999999999
aF0.03475
aF0.034525
aF0.0343
aF0.034074999999999994
aF0.033850000000000005
aF0.03362499999999999
aF0.0334
aF0.033174999999999996
aF0.03294999999999999
aF0.03272499999999999
aF0.0325
aF0.032275
aF0.032049999999999995
aF0.031825000000000006
aF0.0316
aF0.031375
aF0.031149999999999997
aF0.030924999999999994
aF0.03069999999999999
aF0.030475000000000002
aF0.03025
aF0.030024999999999996
aF0.029799999999999993
aF0.029575000000000004
aF0.02935
aF0.029124999999999998
aF0.028899999999999995
aF0.028674999999999992
aF0.02844999999999999
aF0.028225
aF0.027999999999999997
aF0.027774999999999994
aF0.02754999999999999
aF0.027325000000000002
aF0.0271
aF0.026874999999999996
aF0.026650000000000007
aF0.02642499999999999
aF0.0262
aF0.025974999999999998
aF0.025749999999999995
aF0.025524999999999992
aF0.025300000000000003
aF0.025075
aF0.024849999999999997
aF0.024624999999999994
aF0.024400000000000005
aF0.024174999999999988
aF0.02395
aF0.023724999999999996
aF0.023499999999999993
aF0.02327499999999999
aF0.02305
aF0.022824999999999998
aF0.022599999999999995
aF0.022374999999999992
aF0.022150000000000003
aF0.021924999999999986
aF0.021699999999999997
aF0.021474999999999994
aF0.02124999999999999
aF0.021025000000000002
aF0.0208
aF0.020574999999999996
aF0.020349999999999993
aF0.020125000000000004
aF0.0199
aF0.019674999999999998
aF0.019449999999999995
aF0.019225000000000006
aF0.01899999999999999
aF0.018775
aF0.018549999999999997
aF0.018324999999999994
aF0.01809999999999999
aF0.017875000000000002
aF0.01765
aF0.017424999999999996
aF0.017199999999999993
aF0.01697499999999999
aF0.016749999999999987
aF0.016524999999999998
aF0.016299999999999995
aF0.016074999999999992
aF0.01584999999999999
aF0.015625
aF0.015399999999999997
aF0.015174999999999994
aF0.014950000000000005
aF0.014724999999999988
aF0.014499999999999999
aF0.014274999999999996
aF0.014049999999999993
aF0.01382499999999999
aF0.013600000000000001
aF0.013374999999999998
aF0.013149999999999995
aF0.012924999999999992
aF0.012700000000000003
aF0.012474999999999986
aF0.012249999999999997
aF0.012024999999999994
aF0.011799999999999991
aF0.011574999999999988
aF0.011349999999999999
aF0.011124999999999996
aF0.010899999999999993
aF0.01067499999999999
aF0.010450000000000001
aF0.010224999999999984
aF0.01
asS'best_mean_log'
p1501
(lp1502
F-inf
aF-inf
aF-inf
aF-inf
ag5
(g9
S')\\\x8f\xc2\xf5(4\xc0'
p1503
tp1504
Rp1505
ag5
(g9
S'\xa4p=\n\xd7#4\xc0'
p1506
tp1507
Rp1508
ag1508
ag5
(g9
S'\x1f\x85\xebQ\xb8\x1e4\xc0'
p1509
tp1510
Rp1511
ag5
(g9
S'\\\x8f\xc2\xf5(\x1c4\xc0'
p1512
tp1513
Rp1514
ag5
(g9
S'\xd7\xa3p=\n\x174\xc0'
p1515
tp1516
Rp1517
ag1517
ag1517
ag5
(g9
S'R\xb8\x1e\x85\xeb\x114\xc0'
p1518
tp1519
Rp1520
ag5
(g9
S'\xcd\xcc\xcc\xcc\xcc\x0c4\xc0'
p1521
tp1522
Rp1523
ag5
(g9
S'H\xe1z\x14\xae\x074\xc0'
p1524
tp1525
Rp1526
ag5
(g9
S'=\n\xd7\xa3p\xfd3\xc0'
p1527
tp1528
Rp1529
ag5
(g9
S'\x1f\x85\xebQ\xb8\xde3\xc0'
p1530
tp1531
Rp1532
ag5
(g9
S'R\xb8\x1e\x85\xeb\xd13\xc0'
p1533
tp1534
Rp1535
ag5
(g9
S'\x8f\xc2\xf5(\\\xcf3\xc0'
p1536
tp1537
Rp1538
ag5
(g9
S'\x85\xebQ\xb8\x1e\xc53\xc0'
p1539
tp1540
Rp1541
ag5
(g9
S'33333\xb33\xc0'
p1542
tp1543
Rp1544
ag5
(g9
S'fffff\xa63\xc0'
p1545
tp1546
Rp1547
ag5
(g9
S'\x85\xebQ\xb8\x1e\x853\xc0'
p1548
tp1549
Rp1550
ag5
(g9
S'\xaeG\xe1z\x14n3\xc0'
p1551
tp1552
Rp1553
ag5
(g9
S'\xa4p=\n\xd7c3\xc0'
p1554
tp1555
Rp1556
ag5
(g9
S'\xc3\xf5(\\\x8fB3\xc0'
p1557
tp1558
Rp1559
ag5
(g9
S')\\\x8f\xc2\xf5(3\xc0'
p1560
tp1561
Rp1562
ag5
(g9
S'R\xb8\x1e\x85\xeb\x113\xc0'
p1563
tp1564
Rp1565
ag5
(g9
S'\x85\xebQ\xb8\x1e\x053\xc0'
p1566
tp1567
Rp1568
ag5
(g9
S'\xf6(\\\x8f\xc2\xf52\xc0'
p1569
tp1570
Rp1571
ag5
(g9
S'\x14\xaeG\xe1z\xd42\xc0'
p1572
tp1573
Rp1574
ag5
(g9
S'H\xe1z\x14\xae\xc72\xc0'
p1575
tp1576
Rp1577
ag5
(g9
S'fffff\xa62\xc0'
p1578
tp1579
Rp1580
ag5
(g9
S'R\xb8\x1e\x85\xeb\x912\xc0'
p1581
tp1582
Rp1583
ag5
(g9
S'\n\xd7\xa3p=\x8a2\xc0'
p1584
tp1585
Rp1586
ag5
(g9
S'\xb8\x1e\x85\xebQx2\xc0'
p1587
tp1588
Rp1589
ag5
(g9
S'\xecQ\xb8\x1e\x85k2\xc0'
p1590
tp1591
Rp1592
ag5
(g9
S'\x14\xaeG\xe1zT2\xc0'
p1593
tp1594
Rp1595
ag5
(g9
S'\x8f\xc2\xf5(\\O2\xc0'
p1596
tp1597
Rp1598
ag5
(g9
S'\n\xd7\xa3p=J2\xc0'
p1599
tp1600
Rp1601
ag5
(g9
S'\x85\xebQ\xb8\x1eE2\xc0'
p1602
tp1603
Rp1604
ag5
(g9
S'\xf6(\\\x8f\xc252\xc0'
p1605
tp1606
Rp1607
ag5
(g9
S'\xe1z\x14\xaeG!2\xc0'
p1608
tp1609
Rp1610
ag1610
ag1610
ag1610
ag5
(g9
S'\x1f\x85\xebQ\xb8\x1e2\xc0'
p1611
tp1612
Rp1613
ag1613
ag5
(g9
S'\x9a\x99\x99\x99\x99\x192\xc0'
p1614
tp1615
Rp1616
ag5
(g9
S'\x85\xebQ\xb8\x1e\x052\xc0'
p1617
tp1618
Rp1619
ag5
(g9
S'=\n\xd7\xa3p\xfd1\xc0'
p1620
tp1621
Rp1622
ag5
(g9
S'\xaeG\xe1z\x14\xee1\xc0'
p1623
tp1624
Rp1625
ag5
(g9
S'\xa4p=\n\xd7\xe31\xc0'
p1626
tp1627
Rp1628
ag5
(g9
S'=\n\xd7\xa3p\xbd1\xc0'
p1629
tp1630
Rp1631
ag5
(g9
S'33333\xb31\xc0'
p1632
tp1633
Rp1634
ag5
(g9
S'\x8f\xc2\xf5(\\\x8f1\xc0'
p1635
tp1636
Rp1637
ag5
(g9
S'q=\n\xd7\xa3p1\xc0'
p1638
tp1639
Rp1640
ag5
(g9
S'\n\xd7\xa3p=J1\xc0'
p1641
tp1642
Rp1643
ag5
(g9
S'\xecQ\xb8\x1e\x85+1\xc0'
p1644
tp1645
Rp1646
ag5
(g9
S'R\xb8\x1e\x85\xeb\x111\xc0'
p1647
tp1648
Rp1649
ag5
(g9
S'=\n\xd7\xa3p\xfd0\xc0'
p1650
tp1651
Rp1652
ag5
(g9
S'q=\n\xd7\xa3\xf00\xc0'
p1653
tp1654
Rp1655
ag5
(g9
S'\xd7\xa3p=\n\xd70\xc0'
p1656
tp1657
Rp1658
ag5
(g9
S'\x8f\xc2\xf5(\\\x8f0\xc0'
p1659
tp1660
Rp1661
ag5
(g9
S'\xaeG\xe1z\x14n0\xc0'
p1662
tp1663
Rp1664
ag5
(g9
S'\x00\x00\x00\x00\x00@0\xc0'
p1665
tp1666
Rp1667
ag5
(g9
S'\x00\x00\x00\x00\x00\x000\xc0'
p1668
tp1669
Rp1670
ag5
(g9
S'\xb8\x1e\x85\xebQ\xb8/\xc0'
p1671
tp1672
Rp1673
ag5
(g9
S'\xa4p=\n\xd7\xa3/\xc0'
p1674
tp1675
Rp1676
ag5
(g9
S'\xcd\xcc\xcc\xcc\xccL/\xc0'
p1677
tp1678
Rp1679
ag5
(g9
S'333333/\xc0'
p1680
tp1681
Rp1682
ag5
(g9
S'fffff\xe6.\xc0'
p1683
tp1684
Rp1685
ag5
(g9
S'q=\n\xd7\xa3p.\xc0'
p1686
tp1687
Rp1688
ag5
(g9
S'H\xe1z\x14\xaeG.\xc0'
p1689
tp1690
Rp1691
ag5
(g9
S'\xb8\x1e\x85\xebQ\xb8-\xc0'
p1692
tp1693
Rp1694
ag5
(g9
S'\xecQ\xb8\x1e\x85k-\xc0'
p1695
tp1696
Rp1697
ag5
(g9
S'\xecQ\xb8\x1e\x85\xeb,\xc0'
p1698
tp1699
Rp1700
ag5
(g9
S'\x8f\xc2\xf5(\\\x8f,\xc0'
p1701
tp1702
Rp1703
ag5
(g9
S'\x9a\x99\x99\x99\x99\x19,\xc0'
p1704
tp1705
Rp1706
ag5
(g9
S'\x14\xaeG\xe1z\x94+\xc0'
p1707
tp1708
Rp1709
ag5
(g9
S'\x14\xaeG\xe1z\x14+\xc0'
p1710
tp1711
Rp1712
ag5
(g9
S'{\x14\xaeG\xe1z*\xc0'
p1713
tp1714
Rp1715
ag5
(g9
S'\xd7\xa3p=\n\xd7)\xc0'
p1716
tp1717
Rp1718
ag5
(g9
S'\xe1z\x14\xaeGa)\xc0'
p1719
tp1720
Rp1721
ag5
(g9
S'\xd7\xa3p=\n\xd7(\xc0'
p1722
tp1723
Rp1724
ag5
(g9
S'\xd7\xa3p=\nW(\xc0'
p1725
tp1726
Rp1727
ag5
(g9
S'q=\n\xd7\xa3\xf0&\xc0'
p1728
tp1729
Rp1730
ag5
(g9
S'ffffff&\xc0'
p1731
tp1732
Rp1733
ag5
(g9
S'33333\xb3%\xc0'
p1734
tp1735
Rp1736
ag5
(g9
S'\x85\xebQ\xb8\x1e\x85$\xc0'
p1737
tp1738
Rp1739
ag5
(g9
S'\xa4p=\n\xd7\xa3#\xc0'
p1740
tp1741
Rp1742
ag5
(g9
S'R\xb8\x1e\x85\xeb\xd1"\xc0'
p1743
tp1744
Rp1745
ag5
(g9
S'\x1f\x85\xebQ\xb8\x1e"\xc0'
p1746
tp1747
Rp1748
ag5
(g9
S'333333!\xc0'
p1749
tp1750
Rp1751
ag5
(g9
S'\x8f\xc2\xf5(\\\x8f\x1f\xc0'
p1752
tp1753
Rp1754
ag5
(g9
S')\\\x8f\xc2\xf5(\x1c\xc0'
p1755
tp1756
Rp1757
ag5
(g9
S'333333\x19\xc0'
p1758
tp1759
Rp1760
ag5
(g9
S'\x1f\x85\xebQ\xb8\x1e\x15\xc0'
p1761
tp1762
Rp1763
ag5
(g9
S'ffffff\x12\xc0'
p1764
tp1765
Rp1766
ag5
(g9
S'\xa4p=\n\xd7\xa3\x0e\xc0'
p1767
tp1768
Rp1769
ag5
(g9
S'\x8f\xc2\xf5(\\\x8f\x08\xc0'
p1770
tp1771
Rp1772
ag5
(g9
S'\xa4p=\n\xd7\xa3\x04\xc0'
p1773
tp1774
Rp1775
ag5
(g9
S'\xf6(\\\x8f\xc2\xf5\xfc\xbf'
p1776
tp1777
Rp1778
ag5
(g9
S'ffffff\xee\xbf'
p1779
tp1780
Rp1781
ag5
(g9
S'{\x14\xaeG\xe1z\xd4\xbf'
p1782
tp1783
Rp1784
ag5
(g9
S'\xaeG\xe1z\x14\xae\xd7?'
p1785
tp1786
Rp1787
ag5
(g9
S'\x1f\x85\xebQ\xb8\x1e\xf1?'
p1788
tp1789
Rp1790
ag5
(g9
S'\x1f\x85\xebQ\xb8\x1e\x01@'
p1791
tp1792
Rp1793
ag5
(g9
S'H\xe1z\x14\xaeG\t@'
p1794
tp1795
Rp1796
ag5
(g9
S'R\xb8\x1e\x85\xebQ\x10@'
p1797
tp1798
Rp1799
ag5
(g9
S'\x1f\x85\xebQ\xb8\x1e\x14@'
p1800
tp1801
Rp1802
ag5
(g9
S'\xcd\xcc\xcc\xcc\xcc\xcc\x17@'
p1803
tp1804
Rp1805
ag5
(g9
S'R\xb8\x1e\x85\xebQ\x1b@'
p1806
tp1807
Rp1808
ag5
(g9
S'\xd7\xa3p=\n\xd7\x1e@'
p1809
tp1810
Rp1811
ag5
(g9
S'q=\n\xd7\xa3\xf0 @'
p1812
tp1813
Rp1814
ag5
(g9
S'\x14\xaeG\xe1z\x94"@'
p1815
tp1816
Rp1817
ag5
(g9
S'q=\n\xd7\xa3\xf0#@'
p1818
tp1819
Rp1820
ag5
(g9
S'{\x14\xaeG\xe1\xfa$@'
p1821
tp1822
Rp1823
ag5
(g9
S')\\\x8f\xc2\xf5\xa8%@'
p1824
tp1825
Rp1826
ag5
(g9
S'333333&@'
p1827
tp1828
Rp1829
ag5
(g9
S"\xecQ\xb8\x1e\x85k'@"
p1830
tp1831
Rp1832
ag5
(g9
S')\\\x8f\xc2\xf5\xa8(@'
p1833
tp1834
Rp1835
ag5
(g9
S'\xecQ\xb8\x1e\x85\xeb(@'
p1836
tp1837
Rp1838
ag1838
ag5
(g9
S'\x14\xaeG\xe1z\x14)@'
p1839
tp1840
Rp1841
ag1841
ag1841
ag1841
ag1841
ag1841
ag1841
ag5
(g9
S'\xd7\xa3p=\nW)@'
p1842
tp1843
Rp1844
ag5
(g9
S'\x85\xebQ\xb8\x1e\x85)@'
p1845
tp1846
Rp1847
ag5
(g9
S'\x9a\x99\x99\x99\x99\x99)@'
p1848
tp1849
Rp1850
ag5
(g9
S'\x1f\x85\xebQ\xb8\x9e)@'
p1851
tp1852
Rp1853
ag1853
ag1853
ag1853
ag1853
ag1853
ag1853
ag1853
ag1853
ag1853
ag1853
ag1853
ag5
(g9
S'\xe1z\x14\xaeG\xe1)@'
p1854
tp1855
Rp1856
ag1856
ag1856
ag5
(g9
S'\\\x8f\xc2\xf5(\\*@'
p1857
tp1858
Rp1859
ag5
(g9
S'\xcd\xcc\xcc\xcc\xcc\xcc*@'
p1860
tp1861
Rp1862
ag5
(g9
S'{\x14\xaeG\xe1\xfa+@'
p1863
tp1864
Rp1865
ag5
(g9
S'\xc3\xf5(\\\x8fB,@'
p1866
tp1867
Rp1868
ag5
(g9
S'\x00\x00\x00\x00\x00\x00-@'
p1869
tp1870
Rp1871
ag5
(g9
S'\x9a\x99\x99\x99\x99\x99-@'
p1872
tp1873
Rp1874
ag5
(g9
S'\\\x8f\xc2\xf5(\xdc-@'
p1875
tp1876
Rp1877
ag5
(g9
S'\x1f\x85\xebQ\xb8\x1e.@'
p1878
tp1879
Rp1880
ag5
(g9
S'33333\xb3.@'
p1881
tp1882
Rp1883
ag5
(g9
S'\x1f\x85\xebQ\xb8\x1e/@'
p1884
tp1885
Rp1886
ag5
(g9
S'3333330@'
p1887
tp1888
Rp1889
ag5
(g9
S'H\xe1z\x14\xaeG0@'
p1890
tp1891
Rp1892
ag1892
ag1892
ag5
(g9
S'R\xb8\x1e\x85\xebQ0@'
p1893
tp1894
Rp1895
ag5
(g9
S'\xf6(\\\x8f\xc2u0@'
p1896
tp1897
Rp1898
ag1898
ag1898
ag1898
ag1898
ag1898
ag1898
ag1898
ag5
(g9
S'=\n\xd7\xa3p}0@'
p1899
tp1900
Rp1901
ag5
(g9
S'\x00\x00\x00\x00\x00\x800@'
p1902
tp1903
Rp1904
ag5
(g9
S'\x14\xaeG\xe1z\x940@'
p1905
tp1906
Rp1907
ag5
(g9
S'\xf6(\\\x8f\xc2\xb50@'
p1908
tp1909
Rp1910
ag5
(g9
S'\xb8\x1e\x85\xebQ\xb80@'
p1911
tp1912
Rp1913
ag5
(g9
S'\x14\xaeG\xe1z\xd40@'
p1914
tp1915
Rp1916
ag5
(g9
S'\xd7\xa3p=\n\xd70@'
p1917
tp1918
Rp1919
ag5
(g9
S'q=\n\xd7\xa3\xf00@'
p1920
tp1921
Rp1922
ag5
(g9
S'\xb8\x1e\x85\xebQ\xf80@'
p1923
tp1924
Rp1925
ag5
(g9
S')\\\x8f\xc2\xf5(1@'
p1926
tp1927
Rp1928
ag5
(g9
S'{\x14\xaeG\xe1:1@'
p1929
tp1930
Rp1931
ag1931
ag1931
ag1931
ag1931
ag1931
ag1931
ag5
(g9
S'\x00\x00\x00\x00\x00@1@'
p1932
tp1933
Rp1934
ag1934
ag5
(g9
S'\xc3\xf5(\\\x8fB1@'
p1935
tp1936
Rp1937
ag1937
ag1937
ag1937
ag1937
ag1937
ag1937
ag1937
ag1937
ag1937
ag1937
ag1937
ag1937
ag5
(g9
S'\x85\xebQ\xb8\x1eE1@'
p1938
tp1939
Rp1940
ag5
(g9
S'\\\x8f\xc2\xf5(\\1@'
p1941
tp1942
Rp1943
ag5
(g9
S')\\\x8f\xc2\xf5h1@'
p1944
tp1945
Rp1946
ag5
(g9
S'{\x14\xaeG\xe1z1@'
p1947
tp1948
Rp1949
ag1949
ag1949
ag5
(g9
S'\x85\xebQ\xb8\x1e\x851@'
p1950
tp1951
Rp1952
ag5
(g9
S'\xd7\xa3p=\n\x971@'
p1953
tp1954
Rp1955
ag5
(g9
S')\\\x8f\xc2\xf5\xa81@'
p1956
tp1957
Rp1958
ag5
(g9
S'{\x14\xaeG\xe1\xba1@'
p1959
tp1960
Rp1961
ag5
(g9
S'\x00\x00\x00\x00\x00\xc01@'
p1962
tp1963
Rp1964
ag5
(g9
S'\x9a\x99\x99\x99\x99\xd91@'
p1965
tp1966
Rp1967
ag5
(g9
S'\xf6(\\\x8f\xc2\xf51@'
p1968
tp1969
Rp1970
ag5
(g9
S'{\x14\xaeG\xe1\xfa1@'
p1971
tp1972
Rp1973
ag5
(g9
S'R\xb8\x1e\x85\xeb\x112@'
p1974
tp1975
Rp1976
ag1976
ag5
(g9
S'\x14\xaeG\xe1z\x142@'
p1977
tp1978
Rp1979
ag1979
ag1979
ag1979
ag1979
ag1979
ag1979
ag5
(g9
S'\x9a\x99\x99\x99\x99\x192@'
p1980
tp1981
Rp1982
ag5
(g9
S'\xe1z\x14\xaeG!2@'
p1983
tp1984
Rp1985
ag5
(g9
S'\xb8\x1e\x85\xebQ82@'
p1986
tp1987
Rp1988
ag1988
ag5
(g9
S'\xc3\xf5(\\\x8fB2@'
p1989
tp1990
Rp1991
ag5
(g9
S'\x85\xebQ\xb8\x1eE2@'
p1992
tp1993
Rp1994
ag5
(g9
S'\xcd\xcc\xcc\xcc\xccL2@'
p1995
tp1996
Rp1997
ag5
(g9
S'\xd7\xa3p=\nW2@'
p1998
tp1999
Rp2000
ag2000
ag2000
ag2000
ag5
(g9
S'\\\x8f\xc2\xf5(\\2@'
p2001
tp2002
Rp2003
ag5
(g9
S'\xa4p=\n\xd7c2@'
p2004
tp2005
Rp2006
ag5
(g9
S'ffffff2@'
p2007
tp2008
Rp2009
ag5
(g9
S'\xf6(\\\x8f\xc2u2@'
p2010
tp2011
Rp2012
ag5
(g9
S'\x8f\xc2\xf5(\\\x8f2@'
p2013
tp2014
Rp2015
ag5
(g9
S'\xd7\xa3p=\n\x972@'
p2016
tp2017
Rp2018
ag5
(g9
S'\xa4p=\n\xd7\xa32@'
p2019
tp2020
Rp2021
ag5
(g9
S'\xecQ\xb8\x1e\x85\xab2@'
p2022
tp2023
Rp2024
ag2024
ag2024
ag2024
ag2024
ag2024
ag2024
ag2024
ag2024
ag2024
ag2024
ag2024
ag2024
ag2024
ag2024
ag2024
ag2024
ag2024
ag2024
ag2024
ag5
(g9
S'\xb8\x1e\x85\xebQ\xb82@'
p2025
tp2026
Rp2027
ag5
(g9
S'\x14\xaeG\xe1z\xd42@'
p2028
tp2029
Rp2030
ag5
(g9
S'q=\n\xd7\xa3\xf02@'
p2031
tp2032
Rp2033
ag5
(g9
S'\xf6(\\\x8f\xc2\xf52@'
p2034
tp2035
Rp2036
ag5
(g9
S'H\xe1z\x14\xae\x073@'
p2037
tp2038
Rp2039
ag2039
ag2039
ag2039
ag2039
ag2039
ag2039
ag2039
ag2039
ag2039
ag2039
ag2039
ag2039
ag2039
ag2039
ag2039
ag2039
ag2039
ag2039
ag2039
ag2039
ag5
(g9
S'\x8f\xc2\xf5(\\\x0f3@'
p2040
tp2041
Rp2042
ag5
(g9
S'\xe1z\x14\xaeG!3@'
p2043
tp2044
Rp2045
ag5
(g9
S'fffff&3@'
p2046
tp2047
Rp2048
ag2048
ag2048
ag5
(g9
S'\xaeG\xe1z\x14.3@'
p2049
tp2050
Rp2051
ag2051
ag5
(g9
S'\n\xd7\xa3p=J3@'
p2052
tp2053
Rp2054
ag5
(g9
S'\x8f\xc2\xf5(\\O3@'
p2055
tp2056
Rp2057
ag2057
ag2057
ag2057
ag2057
ag2057
ag2057
ag2057
ag2057
ag2057
ag2057
ag2057
ag2057
ag2057
ag2057
ag2057
ag2057
ag2057
ag2057
ag2057
ag2057
ag2057
ag2057
ag2057
ag5
(g9
S'R\xb8\x1e\x85\xebQ3@'
p2058
tp2059
Rp2060
ag5
(g9
S'\xe1z\x14\xaeGa3@'
p2061
tp2062
Rp2063
ag5
(g9
S'ffffff3@'
p2064
tp2065
Rp2066
ag2066
ag5
(g9
S'\xb8\x1e\x85\xebQx3@'
p2067
tp2068
Rp2069
ag5
(g9
S'{\x14\xaeG\xe1z3@'
p2070
tp2071
Rp2072
ag5
(g9
S'H\xe1z\x14\xae\x873@'
p2073
tp2074
Rp2075
ag5
(g9
S'\n\xd7\xa3p=\x8a3@'
p2076
tp2077
Rp2078
ag5
(g9
S'\x8f\xc2\xf5(\\\x8f3@'
p2079
tp2080
Rp2081
ag2081
ag5
(g9
S'\x1f\x85\xebQ\xb8\x9e3@'
p2082
tp2083
Rp2084
ag5
(g9
S'\xe1z\x14\xaeG\xa13@'
p2085
tp2086
Rp2087
ag2087
ag2087
ag2087
ag5
(g9
S'\xecQ\xb8\x1e\x85\xab3@'
p2088
tp2089
Rp2090
ag5
(g9
S'\xc3\xf5(\\\x8f\xc23@'
p2091
tp2092
Rp2093
ag2093
ag5
(g9
S'R\xb8\x1e\x85\xeb\xd13@'
p2094
tp2095
Rp2096
ag2096
ag2096
ag5
(g9
S'\xd7\xa3p=\n\xd73@'
p2097
tp2098
Rp2099
ag2099
ag5
(g9
S'\xe1z\x14\xaeG\xe13@'
p2100
tp2101
Rp2102
ag5
(g9
S'fffff\xe63@'
p2103
tp2104
Rp2105
ag2105
ag5
(g9
S'q=\n\xd7\xa3\xf03@'
p2106
tp2107
Rp2108
ag5
(g9
S'\xf6(\\\x8f\xc2\xf53@'
p2109
tp2110
Rp2111
ag2111
ag2111
ag2111
ag2111
ag2111
ag2111
ag2111
ag2111
ag2111
ag2111
ag2111
ag2111
ag2111
ag2111
ag2111
ag2111
ag2111
ag2111
ag2111
ag2111
ag2111
ag2111
ag2111
ag2111
ag2111
ag2111
ag2111
ag2111
ag2111
ag2111
ag2111
ag2111
ag2111
ag2111
ag2111
ag2111
ag2111
ag2111
ag2111
ag2111
ag2111
ag5
(g9
S'{\x14\xaeG\xe1\xfa3@'
p2112
tp2113
Rp2114
ag2114
ag2114
ag2114
ag2114
ag5
(g9
S'\x00\x00\x00\x00\x00\x004@'
p2115
tp2116
Rp2117
ag5
(g9
S'\x85\xebQ\xb8\x1e\x054@'
p2118
tp2119
Rp2120
ag5
(g9
S'\xcd\xcc\xcc\xcc\xcc\x0c4@'
p2121
tp2122
Rp2123
ag5
(g9
S'\x9a\x99\x99\x99\x99\x194@'
p2124
tp2125
Rp2126
ag5
(g9
S'\xa4p=\n\xd7#4@'
p2127
tp2128
Rp2129
ag2129
ag2129
ag2129
ag2129
ag2129
ag5
(g9
S'q=\n\xd7\xa304@'
p2130
tp2131
Rp2132
ag2132
ag2132
ag5
(g9
S'\x00\x00\x00\x00\x00@4@'
p2133
tp2134
Rp2135
ag2135
ag5
(g9
S'\x85\xebQ\xb8\x1eE4@'
p2136
tp2137
Rp2138
ag5
(g9
S'\n\xd7\xa3p=J4@'
p2139
tp2140
Rp2141
ag5
(g9
S'\x8f\xc2\xf5(\\O4@'
p2142
tp2143
Rp2144
ag5
(g9
S'\xd7\xa3p=\nW4@'
p2145
tp2146
Rp2147
ag5
(g9
S'\x1f\x85\xebQ\xb8^4@'
p2148
tp2149
Rp2150
ag2150
ag2150
ag5
(g9
S'ffffff4@'
p2151
tp2152
Rp2153
ag5
(g9
S'\xf6(\\\x8f\xc2u4@'
p2154
tp2155
Rp2156
ag2156
ag2156
ag2156
ag2156
ag2156
ag2156
ag2156
ag2156
ag2156
ag2156
ag2156
ag2156
ag2156
ag2156
ag2156
ag2156
ag2156
ag2156
ag2156
ag2156
ag2156
ag2156
ag2156
ag2156
ag2156
ag2156
ag2156
ag2156
ag2156
ag5
(g9
S'=\n\xd7\xa3p}4@'
p2157
tp2158
Rp2159
ag5
(g9
S'\x85\xebQ\xb8\x1e\x854@'
p2160
tp2161
Rp2162
ag5
(g9
S'\n\xd7\xa3p=\x8a4@'
p2163
tp2164
Rp2165
ag5
(g9
S'\x14\xaeG\xe1z\x944@'
p2166
tp2167
Rp2168
ag5
(g9
S'\xd7\xa3p=\n\x974@'
p2169
tp2170
Rp2171
ag5
(g9
S'\x1f\x85\xebQ\xb8\x9e4@'
p2172
tp2173
Rp2174
ag5
(g9
S'\xe1z\x14\xaeG\xa14@'
p2175
tp2176
Rp2177
ag5
(g9
S'fffff\xa64@'
p2178
tp2179
Rp2180
ag5
(g9
S')\\\x8f\xc2\xf5\xa84@'
p2181
tp2182
Rp2183
ag2183
ag2183
ag2183
ag2183
ag2183
ag2183
ag2183
ag2183
ag2183
ag2183
ag2183
ag2183
ag2183
ag2183
ag2183
ag2183
ag2183
ag2183
ag2183
ag2183
ag2183
ag2183
ag2183
ag2183
ag2183
ag5
(g9
S'\xaeG\xe1z\x14\xae4@'
p2184
tp2185
Rp2186
ag5
(g9
S'33333\xb34@'
p2187
tp2188
Rp2189
ag5
(g9
S'\xf6(\\\x8f\xc2\xb54@'
p2190
tp2191
Rp2192
ag5
(g9
S'=\n\xd7\xa3p\xbd4@'
p2193
tp2194
Rp2195
ag5
(g9
S'\x85\xebQ\xb8\x1e\xc54@'
p2196
tp2197
Rp2198
ag5
(g9
S'\n\xd7\xa3p=\xca4@'
p2199
tp2200
Rp2201
ag5
(g9
S'\xcd\xcc\xcc\xcc\xcc\xcc4@'
p2202
tp2203
Rp2204
ag2204
ag2204
ag2204
ag2204
ag2204
asS'episodes_log'
p2205
(lp2206
I64
aI75
aI86
aI96
aI107
aI118
aI129
aI140
aI150
aI161
aI171
aI182
aI191
aI201
aI211
aI221
aI230
aI239
aI247
aI256
aI265
aI273
aI281
aI289
aI297
aI304
aI311
aI319
aI327
aI334
aI341
aI348
aI355
aI362
aI369
aI377
aI384
aI391
aI398
aI405
aI412
aI419
aI426
aI433
aI440
aI446
aI453
aI460
aI467
aI473
aI479
aI485
aI491
aI497
aI503
aI508
aI514
aI519
aI524
aI529
aI535
aI540
aI545
aI550
aI555
aI561
aI565
aI569
aI574
aI579
aI584
aI588
aI592
aI596
aI600
aI603
aI607
aI610
aI613
aI616
aI619
aI622
aI625
aI627
aI630
aI633
aI636
aI638
aI640
aI643
aI645
aI648
aI650
aI653
aI656
aI659
aI662
aI666
aI669
aI672
aI675
aI678
aI681
aI685
aI688
aI691
aI694
aI698
aI702
aI706
aI710
aI714
aI718
aI722
aI726
aI730
aI734
aI738
aI741
aI745
aI749
aI753
aI757
aI760
aI763
aI766
aI769
aI773
aI776
aI779
aI782
aI786
aI790
aI793
aI797
aI800
aI803
aI807
aI811
aI815
aI820
aI823
aI827
aI832
aI837
aI842
aI846
aI851
aI856
aI860
aI864
aI869
aI873
aI878
aI882
aI887
aI891
aI896
aI900
aI905
aI909
aI913
aI918
aI922
aI927
aI932
aI936
aI941
aI945
aI950
aI954
aI959
aI964
aI968
aI973
aI978
aI983
aI988
aI992
aI997
aI1002
aI1008
aI1012
aI1017
aI1021
aI1025
aI1030
aI1035
aI1040
aI1045
aI1050
aI1055
aI1059
aI1064
aI1069
aI1074
aI1079
aI1084
aI1088
aI1094
aI1099
aI1104
aI1109
aI1114
aI1118
aI1123
aI1128
aI1133
aI1138
aI1143
aI1148
aI1153
aI1159
aI1164
aI1169
aI1174
aI1179
aI1184
aI1189
aI1194
aI1199
aI1204
aI1208
aI1213
aI1218
aI1223
aI1228
aI1233
aI1238
aI1243
aI1248
aI1254
aI1259
aI1264
aI1269
aI1274
aI1279
aI1284
aI1290
aI1295
aI1300
aI1305
aI1310
aI1315
aI1321
aI1325
aI1330
aI1335
aI1340
aI1346
aI1351
aI1356
aI1360
aI1366
aI1371
aI1376
aI1381
aI1387
aI1392
aI1397
aI1402
aI1407
aI1413
aI1418
aI1424
aI1429
aI1434
aI1440
aI1445
aI1450
aI1455
aI1460
aI1465
aI1471
aI1476
aI1481
aI1486
aI1491
aI1496
aI1501
aI1507
aI1512
aI1518
aI1523
aI1528
aI1533
aI1539
aI1545
aI1550
aI1555
aI1561
aI1566
aI1571
aI1577
aI1582
aI1587
aI1592
aI1598
aI1603
aI1609
aI1614
aI1619
aI1624
aI1630
aI1635
aI1640
aI1645
aI1651
aI1655
aI1661
aI1666
aI1671
aI1676
aI1682
aI1686
aI1692
aI1697
aI1702
aI1707
aI1713
aI1718
aI1723
aI1729
aI1734
aI1740
aI1745
aI1751
aI1756
aI1762
aI1767
aI1772
aI1778
aI1783
aI1789
aI1795
aI1800
aI1806
aI1811
aI1817
aI1822
aI1828
aI1833
aI1839
aI1845
aI1850
aI1856
aI1862
aI1867
aI1873
aI1878
aI1884
aI1889
aI1895
aI1901
aI1906
aI1912
aI1917
aI1922
aI1927
aI1933
aI1939
aI1944
aI1950
aI1955
aI1960
aI1965
aI1971
aI1977
aI1983
aI1988
aI1994
aI2000
aI2005
aI2011
aI2017
aI2022
aI2028
aI2034
aI2039
aI2044
aI2050
aI2056
aI2061
aI2067
aI2073
aI2078
aI2083
aI2089
aI2094
aI2100
aI2106
aI2111
aI2116
aI2122
aI2127
aI2133
aI2139
aI2144
aI2150
aI2156
aI2161
aI2167
aI2173
aI2178
aI2184
aI2190
aI2196
aI2201
aI2207
aI2213
aI2218
aI2224
aI2230
aI2235
aI2241
aI2247
aI2253
aI2259
aI2265
aI2271
aI2276
aI2282
aI2287
aI2293
aI2299
aI2304
aI2310
aI2316
aI2321
aI2327
aI2333
aI2338
aI2344
aI2349
aI2354
aI2360
aI2366
aI2371
aI2377
aI2383
aI2388
aI2394
aI2400
aI2406
aI2412
aI2418
aI2424
aI2429
aI2435
aI2441
aI2447
aI2453
aI2459
aI2464
aI2470
aI2476
aI2482
aI2488
aI2494
aI2500
aI2506
aI2512
aI2517
aI2523
aI2528
aI2534
aI2540
aI2546
aI2551
aI2557
aI2563
aI2569
aI2575
aI2581
aI2587
aI2592
aI2598
aI2604
aI2610
aI2616
aI2622
aI2628
aI2634
aI2640
aI2646
aI2652
aI2658
aI2664
aI2670
aI2676
aI2682
aI2688
aI2694
aI2700
aI2706
as.