(dp0
S't_log'
p1
(lp2
I60000
aI70000
aI80000
aI90000
aI100000
aI110000
aI120000
aI130000
aI140000
aI150000
aI160000
aI170000
aI180000
aI190000
aI200000
asS'mean_reward_log'
p3
(lp4
cnumpy.core.multiarray
scalar
p5
(cnumpy
dtype
p6
(S'f8'
p7
I0
I1
tp8
Rp9
(I3
S'<'
p10
NNNI-1
I-1
I0
tp11
bS'\x00\x00\x00\x00\x0004\xc0'
p12
tp13
Rp14
ag5
(g9
S'0\x96\xfcb\xc9/4\xc0'
p15
tp16
Rp17
ag5
(g9
S'\x0c\xfa\x82\xbe\xa0/4\xc0'
p18
tp19
Rp20
ag5
(g9
S'\r\xdb\xcd\xf2$24\xc0'
p21
tp22
Rp23
ag5
(g9
S'3333334\xc0'
p24
tp25
Rp26
ag5
(g9
S'\xb8\x1e\x85\xebQ84\xc0'
p27
tp28
Rp29
ag5
(g9
S'=\n\xd7\xa3p=4\xc0'
p30
tp31
Rp32
ag5
(g9
S'q=\n\xd7\xa304\xc0'
p33
tp34
Rp35
ag5
(g9
S'\xecQ\xb8\x1e\x85+4\xc0'
p36
tp37
Rp38
ag5
(g9
S'\xaeG\xe1z\x14.4\xc0'
p39
tp40
Rp41
ag5
(g9
S'q=\n\xd7\xa304\xc0'
p42
tp43
Rp44
ag5
(g9
S'\xa4p=\n\xd7#4\xc0'
p45
tp46
Rp47
ag5
(g9
S'\xcd\xcc\xcc\xcc\xcc\x0c4\xc0'
p48
tp49
Rp50
ag5
(g9
S'\n\xd7\xa3p=\n4\xc0'
p51
tp52
Rp53
ag5
(g9
S'\x00\x00\x00\x00\x00\x004\xc0'
p54
tp55
Rp56
asS'learning_rate_log'
p57
(lp58
F0.0001
aF0.0001
aF0.0001
aF0.0001
aF0.0001
aF0.0001
aF0.0001
aF0.0001
aF0.0001
aF0.0001
aF0.0001
aF0.0001
aF0.0001
aF0.0001
aF0.0001
asS'exploration_log'
p59
(lp60
F0.946
aF0.9369999999999999
aF0.9279999999999999
aF0.919
aF0.91
aF0.901
aF0.892
aF0.883
aF0.874
aF0.865
aF0.856
aF0.847
aF0.838
aF0.829
aF0.82
asS'best_mean_log'
p61
(lp62
F-inf
aF-inf
aF-inf
aF-inf
ag5
(g9
S'3333334\xc0'
p63
tp64
Rp65
ag65
ag65
ag5
(g9
S'q=\n\xd7\xa304\xc0'
p66
tp67
Rp68
ag5
(g9
S'\xecQ\xb8\x1e\x85+4\xc0'
p69
tp70
Rp71
ag5
(g9
S')\\\x8f\xc2\xf5(4\xc0'
p72
tp73
Rp74
ag5
(g9
S'fffff&4\xc0'
p75
tp76
Rp77
ag5
(g9
S'\xa4p=\n\xd7#4\xc0'
p78
tp79
Rp80
ag5
(g9
S'H\xe1z\x14\xae\x074\xc0'
p81
tp82
Rp83
ag83
ag5
(g9
S'\x00\x00\x00\x00\x00\x004\xc0'
p84
tp85
Rp86
asS'episodes_log'
p87
(lp88
I64
aI75
aI86
aI97
aI108
aI118
aI129
aI140
aI150
aI161
aI171
aI180
aI190
aI200
aI210
as.