(dp0
S't_log'
p1
(lp2
I60000
aI70000
aI80000
aI90000
aI100000
aI110000
aI120000
aI130000
aI140000
aI150000
aI160000
aI170000
aI180000
aI190000
aI200000
aI210000
aI220000
aI230000
aI240000
aI250000
aI260000
aI270000
aI280000
aI290000
aI300000
aI310000
aI320000
aI330000
aI340000
aI350000
aI360000
aI370000
aI380000
aI390000
aI400000
asS'mean_reward_log'
p3
(lp4
cnumpy.core.multiarray
scalar
p5
(cnumpy
dtype
p6
(S'f8'
p7
I0
I1
tp8
Rp9
(I3
S'<'
p10
NNNI-1
I-1
I0
tp11
bS'q=\n\xd7\xa3\xb04\xc0'
p12
tp13
Rp14
ag5
(g9
S')\\\x8f\xc2\xf5\xa84\xc0'
p15
tp16
Rp17
ag5
(g9
S'\x8f\xc2\xf5(\\\x8f4\xc0'
p18
tp19
Rp20
ag5
(g9
S'H\xe1z\x14\xae\x874\xc0'
p21
tp22
Rp23
ag5
(g9
S'H\xe1z\x14\xae\x874\xc0'
p24
tp25
Rp26
ag5
(g9
S'\\\x8f\xc2\xf5(\x9c4\xc0'
p27
tp28
Rp29
ag5
(g9
S'\x00\x00\x00\x00\x00\x804\xc0'
p30
tp31
Rp32
ag5
(g9
S'\xb8\x1e\x85\xebQx4\xc0'
p33
tp34
Rp35
ag5
(g9
S'\x14\xaeG\xe1zT4\xc0'
p36
tp37
Rp38
ag5
(g9
S'=\n\xd7\xa3p=4\xc0'
p39
tp40
Rp41
ag5
(g9
S'\xb8\x1e\x85\xebQ84\xc0'
p42
tp43
Rp44
ag5
(g9
S'\xa4p=\n\xd7#4\xc0'
p45
tp46
Rp47
ag5
(g9
S'\xaeG\xe1z\x14.4\xc0'
p48
tp49
Rp50
ag5
(g9
S'\xe1z\x14\xaeG!4\xc0'
p51
tp52
Rp53
ag5
(g9
S'\xecQ\xb8\x1e\x85+4\xc0'
p54
tp55
Rp56
ag5
(g9
S'\n\xd7\xa3p=\n4\xc0'
p57
tp58
Rp59
ag5
(g9
S'\xb8\x1e\x85\xebQ\xf83\xc0'
p60
tp61
Rp62
ag5
(g9
S'\xa4p=\n\xd7\xe33\xc0'
p63
tp64
Rp65
ag5
(g9
S')\\\x8f\xc2\xf5\xe83\xc0'
p66
tp67
Rp68
ag5
(g9
S'\xaeG\xe1z\x14\xee3\xc0'
p69
tp70
Rp71
ag5
(g9
S'\xaeG\xe1z\x14\xee3\xc0'
p72
tp73
Rp74
ag5
(g9
S'\xf6(\\\x8f\xc2\xf53\xc0'
p75
tp76
Rp77
ag5
(g9
S'\xe1z\x14\xaeG\xe13\xc0'
p78
tp79
Rp80
ag5
(g9
S')\\\x8f\xc2\xf5\xa83\xc0'
p81
tp82
Rp83
ag5
(g9
S'H\xe1z\x14\xaeG3\xc0'
p84
tp85
Rp86
ag5
(g9
S'=\n\xd7\xa3p\xfd2\xc0'
p87
tp88
Rp89
ag5
(g9
S'\xe1z\x14\xaeG\xe12\xc0'
p90
tp91
Rp92
ag5
(g9
S'q=\n\xd7\xa3\xb02\xc0'
p93
tp94
Rp95
ag5
(g9
S'\x00\x00\x00\x00\x00\x003\xc0'
p96
tp97
Rp98
ag5
(g9
S'\x8f\xc2\xf5(\\\x0f3\xc0'
p99
tp100
Rp101
ag5
(g9
S'\xc3\xf5(\\\x8f\x023\xc0'
p102
tp103
Rp104
ag5
(g9
S'\xc3\xf5(\\\x8fB3\xc0'
p105
tp106
Rp107
ag5
(g9
S'fffff&3\xc0'
p108
tp109
Rp110
ag5
(g9
S'\xaeG\xe1z\x14\xee2\xc0'
p111
tp112
Rp113
ag5
(g9
S'\x1f\x85\xebQ\xb8\xde2\xc0'
p114
tp115
Rp116
asS'learning_rate_log'
p117
(lp118
F0.001
aF0.001
aF0.001
aF0.001
aF0.001
aF0.001
aF0.001
aF0.001
aF0.001
aF0.001
aF0.001
aF0.001
aF0.001
aF0.001
aF0.001
aF0.001
aF0.001
aF0.001
aF0.001
aF0.001
aF0.001
aF0.001
aF0.001
aF0.001
aF0.001
aF0.001
aF0.001
aF0.001
aF0.001
aF0.001
aF0.001
aF0.001
aF0.001
aF0.001
aF0.001
asS'exploration_log'
p119
(lp120
F0.194
aF0.193
aF0.192
aF0.191
aF0.19
aF0.189
aF0.188
aF0.187
aF0.186
aF0.185
aF0.184
aF0.183
aF0.18200000000000002
aF0.181
aF0.18
aF0.17900000000000002
aF0.17800000000000002
aF0.17700000000000002
aF0.17600000000000002
aF0.17500000000000002
aF0.17400000000000002
aF0.17300000000000001
aF0.17200000000000001
aF0.171
aF0.17
aF0.169
aF0.168
aF0.167
aF0.166
aF0.165
aF0.164
aF0.163
aF0.162
aF0.161
aF0.16
asS'best_mean_log'
p121
(lp122
g5
(g9
S'\x00\x00\x00\x00\x00\x804\xc0'
p123
tp124
Rp125
ag125
ag125
ag125
ag5
(g9
S'=\n\xd7\xa3p}4\xc0'
p126
tp127
Rp128
ag128
ag128
ag5
(g9
S'\xf6(\\\x8f\xc2u4\xc0'
p129
tp130
Rp131
ag5
(g9
S'\x14\xaeG\xe1zT4\xc0'
p132
tp133
Rp134
ag5
(g9
S'{\x14\xaeG\xe1:4\xc0'
p135
tp136
Rp137
ag5
(g9
S'\xecQ\xb8\x1e\x85+4\xc0'
p138
tp139
Rp140
ag5
(g9
S'\\\x8f\xc2\xf5(\x1c4\xc0'
p141
tp142
Rp143
ag143
ag5
(g9
S'\xd7\xa3p=\n\x174\xc0'
p144
tp145
Rp146
ag146
ag5
(g9
S'\n\xd7\xa3p=\n4\xc0'
p147
tp148
Rp149
ag5
(g9
S'\xb8\x1e\x85\xebQ\xf83\xc0'
p150
tp151
Rp152
ag5
(g9
S'\\\x8f\xc2\xf5(\xdc3\xc0'
p153
tp154
Rp155
ag5
(g9
S'\x9a\x99\x99\x99\x99\xd93\xc0'
p156
tp157
Rp158
ag158
ag158
ag158
ag158
ag5
(g9
S')\\\x8f\xc2\xf5\xa83\xc0'
p159
tp160
Rp161
ag5
(g9
S'H\xe1z\x14\xaeG3\xc0'
p162
tp163
Rp164
ag5
(g9
S'=\n\xd7\xa3p\xfd2\xc0'
p165
tp166
Rp167
ag5
(g9
S'\xd7\xa3p=\n\xd72\xc0'
p168
tp169
Rp170
ag5
(g9
S'fffff\xa62\xc0'
p171
tp172
Rp173
ag173
ag173
ag173
ag173
ag173
ag173
ag173
asS'episodes_log'
p174
(lp175
I204
aI240
aI275
aI310
aI344
aI379
aI413
aI446
aI479
aI511
aI545
aI578
aI611
aI642
aI675
aI706
aI738
aI770
aI799
aI830
aI859
aI890
aI919
aI946
aI970
aI996
aI1023
aI1048
aI1074
aI1100
aI1128
aI1156
aI1183
aI1208
aI1233
as.