(dp0
S't_log'
p1
(lp2
I60000
aI70000
aI80000
aI90000
aI100000
aI110000
aI120000
aI130000
aI140000
aI150000
aI160000
aI170000
aI180000
aI190000
aI200000
aI210000
aI220000
aI230000
aI240000
aI250000
aI260000
aI270000
aI280000
aI290000
aI300000
aI310000
aI320000
aI330000
aI340000
aI350000
aI360000
aI370000
aI380000
aI390000
aI400000
aI410000
aI420000
aI430000
aI440000
aI450000
aI460000
aI470000
aI480000
aI490000
aI500000
aI510000
aI520000
aI530000
aI540000
aI550000
aI560000
aI570000
aI580000
aI590000
aI600000
aI610000
aI620000
aI630000
aI640000
aI650000
aI660000
aI670000
aI680000
aI690000
aI700000
aI710000
aI720000
aI730000
aI740000
aI750000
aI760000
aI770000
aI780000
aI790000
aI800000
aI810000
aI820000
aI830000
aI840000
aI850000
aI860000
aI870000
aI880000
aI890000
aI900000
aI910000
aI920000
aI930000
aI940000
aI950000
aI960000
aI970000
aI980000
aI990000
aI1000000
aI1010000
aI1020000
aI1030000
aI1040000
aI1050000
aI1060000
aI1070000
aI1080000
aI1090000
aI1100000
aI1110000
aI1120000
aI1130000
aI1140000
aI1150000
aI1160000
aI1170000
aI1180000
aI1190000
aI1200000
aI1210000
aI1220000
aI1230000
aI1240000
aI1250000
aI1260000
aI1270000
aI1280000
aI1290000
aI1300000
aI1310000
aI1320000
aI1330000
aI1340000
aI1350000
aI1360000
aI1370000
aI1380000
aI1390000
aI1400000
aI1410000
aI1420000
aI1430000
aI1440000
aI1450000
aI1460000
aI1470000
aI1480000
aI1490000
aI1500000
aI1510000
aI1520000
aI1530000
aI1540000
aI1550000
aI1560000
aI1570000
aI1580000
aI1590000
aI1600000
aI1610000
aI1620000
aI1630000
aI1640000
aI1650000
aI1660000
aI1670000
aI1680000
aI1690000
aI1700000
aI1710000
aI1720000
aI1730000
aI1740000
aI1750000
aI1760000
aI1770000
aI1780000
aI1790000
aI1800000
aI1810000
aI1820000
aI1830000
aI1840000
aI1850000
aI1860000
aI1870000
aI1880000
aI1890000
aI1900000
aI1910000
aI1920000
aI1930000
aI1940000
aI1950000
aI1960000
aI1970000
aI1980000
aI1990000
aI2000000
aI2010000
aI2020000
aI2030000
aI2040000
aI2050000
aI2060000
aI2070000
aI2080000
aI2090000
aI2100000
aI2110000
aI2120000
aI2130000
aI2140000
aI2150000
aI2160000
aI2170000
aI2180000
aI2190000
aI2200000
aI2210000
aI2220000
aI2230000
aI2240000
aI2250000
aI2260000
aI2270000
aI2280000
aI2290000
aI2300000
aI2310000
aI2320000
aI2330000
aI2340000
aI2350000
aI2360000
aI2370000
aI2380000
aI2390000
aI2400000
aI2410000
aI2420000
aI2430000
aI2440000
aI2450000
aI2460000
aI2470000
aI2480000
aI2490000
aI2500000
aI2510000
aI2520000
aI2530000
aI2540000
aI2550000
aI2560000
aI2570000
aI2580000
aI2590000
aI2600000
aI2610000
aI2620000
aI2630000
aI2640000
aI2650000
aI2660000
aI2670000
aI2680000
aI2690000
aI2700000
aI2710000
aI2720000
aI2730000
aI2740000
aI2750000
aI2760000
aI2770000
aI2780000
aI2790000
aI2800000
aI2810000
aI2820000
aI2830000
aI2840000
aI2850000
aI2860000
aI2870000
aI2880000
aI2890000
aI2900000
aI2910000
aI2920000
aI2930000
aI2940000
aI2950000
aI2960000
aI2970000
aI2980000
aI2990000
aI3000000
aI3010000
aI3020000
aI3030000
aI3040000
aI3050000
aI3060000
aI3070000
aI3080000
aI3090000
aI3100000
aI3110000
aI3120000
aI3130000
aI3140000
aI3150000
aI3160000
aI3170000
aI3180000
aI3190000
aI3200000
aI3210000
aI3220000
aI3230000
aI3240000
aI3250000
aI3260000
aI3270000
aI3280000
aI3290000
aI3300000
aI3310000
aI3320000
aI3330000
aI3340000
aI3350000
aI3360000
aI3370000
aI3380000
aI3390000
aI3400000
aI3410000
aI3420000
aI3430000
aI3440000
aI3450000
aI3460000
aI3470000
aI3480000
aI3490000
aI3500000
aI3510000
aI3520000
aI3530000
aI3540000
aI3550000
aI3560000
aI3570000
aI3580000
aI3590000
aI3600000
aI3610000
aI3620000
aI3630000
aI3640000
aI3650000
aI3660000
aI3670000
aI3680000
aI3690000
aI3700000
aI3710000
aI3720000
aI3730000
aI3740000
aI3750000
aI3760000
aI3770000
aI3780000
aI3790000
aI3800000
aI3810000
aI3820000
aI3830000
aI3840000
aI3850000
aI3860000
aI3870000
aI3880000
aI3890000
aI3900000
aI3910000
aI3920000
aI3930000
aI3940000
aI3950000
aI3960000
aI3970000
aI3980000
aI3990000
aI4000000
aI4010000
aI4020000
aI4030000
aI4040000
aI4050000
aI4060000
aI4070000
aI4080000
aI4090000
aI4100000
aI4110000
aI4120000
aI4130000
aI4140000
aI4150000
aI4160000
aI4170000
aI4180000
aI4190000
aI4200000
asS'mean_reward_log'
p3
(lp4
cnumpy.core.multiarray
scalar
p5
(cnumpy
dtype
p6
(S'f8'
p7
I0
I1
tp8
Rp9
(I3
S'<'
p10
NNNI-1
I-1
I0
tp11
bS'q=\n\xd7\xa3\xb04\xc0'
p12
tp13
Rp14
ag5
(g9
S')\\\x8f\xc2\xf5\xa84\xc0'
p15
tp16
Rp17
ag5
(g9
S'\x8f\xc2\xf5(\\\x8f4\xc0'
p18
tp19
Rp20
ag5
(g9
S'H\xe1z\x14\xae\x874\xc0'
p21
tp22
Rp23
ag5
(g9
S'H\xe1z\x14\xae\x874\xc0'
p24
tp25
Rp26
ag5
(g9
S'\\\x8f\xc2\xf5(\x9c4\xc0'
p27
tp28
Rp29
ag5
(g9
S'\x00\x00\x00\x00\x00\x804\xc0'
p30
tp31
Rp32
ag5
(g9
S'\xb8\x1e\x85\xebQx4\xc0'
p33
tp34
Rp35
ag5
(g9
S'\x14\xaeG\xe1zT4\xc0'
p36
tp37
Rp38
ag5
(g9
S'=\n\xd7\xa3p=4\xc0'
p39
tp40
Rp41
ag5
(g9
S'\xb8\x1e\x85\xebQ84\xc0'
p42
tp43
Rp44
ag5
(g9
S'\xa4p=\n\xd7#4\xc0'
p45
tp46
Rp47
ag5
(g9
S'\xaeG\xe1z\x14.4\xc0'
p48
tp49
Rp50
ag5
(g9
S'\xe1z\x14\xaeG!4\xc0'
p51
tp52
Rp53
ag5
(g9
S'\xecQ\xb8\x1e\x85+4\xc0'
p54
tp55
Rp56
ag5
(g9
S'\n\xd7\xa3p=\n4\xc0'
p57
tp58
Rp59
ag5
(g9
S'\xb8\x1e\x85\xebQ\xf83\xc0'
p60
tp61
Rp62
ag5
(g9
S'\xa4p=\n\xd7\xe33\xc0'
p63
tp64
Rp65
ag5
(g9
S')\\\x8f\xc2\xf5\xe83\xc0'
p66
tp67
Rp68
ag5
(g9
S'\xaeG\xe1z\x14\xee3\xc0'
p69
tp70
Rp71
ag5
(g9
S'\xaeG\xe1z\x14\xee3\xc0'
p72
tp73
Rp74
ag5
(g9
S'\xf6(\\\x8f\xc2\xf53\xc0'
p75
tp76
Rp77
ag5
(g9
S'\xe1z\x14\xaeG\xe13\xc0'
p78
tp79
Rp80
ag5
(g9
S')\\\x8f\xc2\xf5\xa83\xc0'
p81
tp82
Rp83
ag5
(g9
S'H\xe1z\x14\xaeG3\xc0'
p84
tp85
Rp86
ag5
(g9
S'=\n\xd7\xa3p\xfd2\xc0'
p87
tp88
Rp89
ag5
(g9
S'\xe1z\x14\xaeG\xe12\xc0'
p90
tp91
Rp92
ag5
(g9
S'q=\n\xd7\xa3\xb02\xc0'
p93
tp94
Rp95
ag5
(g9
S'\x00\x00\x00\x00\x00\x003\xc0'
p96
tp97
Rp98
ag5
(g9
S'\x8f\xc2\xf5(\\\x0f3\xc0'
p99
tp100
Rp101
ag5
(g9
S'\xc3\xf5(\\\x8f\x023\xc0'
p102
tp103
Rp104
ag5
(g9
S'\xc3\xf5(\\\x8fB3\xc0'
p105
tp106
Rp107
ag5
(g9
S'fffff&3\xc0'
p108
tp109
Rp110
ag5
(g9
S'\xaeG\xe1z\x14\xee2\xc0'
p111
tp112
Rp113
ag5
(g9
S'\x1f\x85\xebQ\xb8\xde2\xc0'
p114
tp115
Rp116
ag5
(g9
S'H\xe1z\x14\xae\xc72\xc0'
p117
tp118
Rp119
ag5
(g9
S'\xd7\xa3p=\n\xd72\xc0'
p120
tp121
Rp122
ag5
(g9
S'q=\n\xd7\xa3\xf02\xc0'
p123
tp124
Rp125
ag5
(g9
S'\x00\x00\x00\x00\x00\x003\xc0'
p126
tp127
Rp128
ag5
(g9
S'\xc3\xf5(\\\x8f\x023\xc0'
p129
tp130
Rp131
ag5
(g9
S'\xf6(\\\x8f\xc2\xf52\xc0'
p132
tp133
Rp134
ag5
(g9
S'\xf6(\\\x8f\xc2\xf52\xc0'
p135
tp136
Rp137
ag5
(g9
S'fffff\xe62\xc0'
p138
tp139
Rp140
ag5
(g9
S'\xecQ\xb8\x1e\x85\xeb2\xc0'
p141
tp142
Rp143
ag5
(g9
S')\\\x8f\xc2\xf5\xe82\xc0'
p144
tp145
Rp146
ag5
(g9
S'\xf6(\\\x8f\xc2\xf52\xc0'
p147
tp148
Rp149
ag5
(g9
S'=\n\xd7\xa3p\xfd2\xc0'
p150
tp151
Rp152
ag5
(g9
S'\x8f\xc2\xf5(\\\x0f3\xc0'
p153
tp154
Rp155
ag5
(g9
S'\xaeG\xe1z\x14.3\xc0'
p156
tp157
Rp158
ag5
(g9
S'33333s3\xc0'
p159
tp160
Rp161
ag5
(g9
S'\xf6(\\\x8f\xc2u3\xc0'
p162
tp163
Rp164
ag5
(g9
S'\x1f\x85\xebQ\xb8\x9e3\xc0'
p165
tp166
Rp167
ag5
(g9
S'\x85\xebQ\xb8\x1e\x054\xc0'
p168
tp169
Rp170
ag5
(g9
S'\x9a\x99\x99\x99\x99Y4\xc0'
p171
tp172
Rp173
ag5
(g9
S'\x14\xaeG\xe1zT4\xc0'
p174
tp175
Rp176
ag5
(g9
S'R\xb8\x1e\x85\xeb\x114\xc0'
p177
tp178
Rp179
ag5
(g9
S'\xaeG\xe1z\x14\xee3\xc0'
p180
tp181
Rp182
ag5
(g9
S'{\x14\xaeG\xe1\xfa3\xc0'
p183
tp184
Rp185
ag5
(g9
S'\x00\x00\x00\x00\x00\x004\xc0'
p186
tp187
Rp188
ag5
(g9
S'\x9a\x99\x99\x99\x99\xd93\xc0'
p189
tp190
Rp191
ag5
(g9
S'\\\x8f\xc2\xf5(\x9c3\xc0'
p192
tp193
Rp194
ag5
(g9
S'\xb8\x1e\x85\xebQx3\xc0'
p195
tp196
Rp197
ag5
(g9
S'\x00\x00\x00\x00\x00@3\xc0'
p198
tp199
Rp200
ag5
(g9
S'H\xe1z\x14\xaeG3\xc0'
p201
tp202
Rp203
ag5
(g9
S'\xb8\x1e\x85\xebQx3\xc0'
p204
tp205
Rp206
ag5
(g9
S'\xd7\xa3p=\n\x973\xc0'
p207
tp208
Rp209
ag5
(g9
S'\xaeG\xe1z\x14\xae3\xc0'
p210
tp211
Rp212
ag5
(g9
S'\x8f\xc2\xf5(\\\xcf3\xc0'
p213
tp214
Rp215
ag5
(g9
S'\xe1z\x14\xaeG\xe13\xc0'
p216
tp217
Rp218
ag5
(g9
S'\\\x8f\xc2\xf5(\xdc3\xc0'
p219
tp220
Rp221
ag5
(g9
S'\xd7\xa3p=\n\xd73\xc0'
p222
tp223
Rp224
ag5
(g9
S'\xa4p=\n\xd7\xe33\xc0'
p225
tp226
Rp227
ag5
(g9
S'\x14\xaeG\xe1z\x144\xc0'
p228
tp229
Rp230
ag5
(g9
S'{\x14\xaeG\xe1:4\xc0'
p231
tp232
Rp233
ag5
(g9
S'\xaeG\xe1z\x14n4\xc0'
p234
tp235
Rp236
ag5
(g9
S'\xcd\xcc\xcc\xcc\xcc\x8c4\xc0'
p237
tp238
Rp239
ag5
(g9
S'\x85\xebQ\xb8\x1e\x854\xc0'
p240
tp241
Rp242
ag5
(g9
S'\x1f\x85\xebQ\xb8\x9e4\xc0'
p243
tp244
Rp245
ag5
(g9
S'{\x14\xaeG\xe1\xba4\xc0'
p246
tp247
Rp248
ag5
(g9
S'H\xe1z\x14\xae\xc74\xc0'
p249
tp250
Rp251
ag5
(g9
S'\xaeG\xe1z\x14\xae4\xc0'
p252
tp253
Rp254
ag5
(g9
S'\n\xd7\xa3p=\x8a4\xc0'
p255
tp256
Rp257
ag5
(g9
S'\x85\xebQ\xb8\x1e\x854\xc0'
p258
tp259
Rp260
ag5
(g9
S'\xe1z\x14\xaeG\xa14\xc0'
p261
tp262
Rp263
ag5
(g9
S'fffff\xa64\xc0'
p264
tp265
Rp266
ag5
(g9
S'\xc3\xf5(\\\x8f\x824\xc0'
p267
tp268
Rp269
ag5
(g9
S')\\\x8f\xc2\xf5h4\xc0'
p270
tp271
Rp272
ag5
(g9
S'\xa4p=\n\xd7c4\xc0'
p273
tp274
Rp275
ag5
(g9
S'{\x14\xaeG\xe1z4\xc0'
p276
tp277
Rp278
ag5
(g9
S'\xc3\xf5(\\\x8f\x824\xc0'
p279
tp280
Rp281
ag5
(g9
S'\xecQ\xb8\x1e\x85\xab4\xc0'
p282
tp283
Rp284
ag5
(g9
S'\n\xd7\xa3p=\xca4\xc0'
p285
tp286
Rp287
ag5
(g9
S'=\n\xd7\xa3p\xbd4\xc0'
p288
tp289
Rp290
ag5
(g9
S'\xe1z\x14\xaeG\xa14\xc0'
p291
tp292
Rp293
ag5
(g9
S'\xe1z\x14\xaeG\xa14\xc0'
p294
tp295
Rp296
ag5
(g9
S'{\x14\xaeG\xe1\xba4\xc0'
p297
tp298
Rp299
ag5
(g9
S'=\n\xd7\xa3p\xbd4\xc0'
p300
tp301
Rp302
ag5
(g9
S'\x85\xebQ\xb8\x1e\xc54\xc0'
p303
tp304
Rp305
ag5
(g9
S'\xcd\xcc\xcc\xcc\xcc\xcc4\xc0'
p306
tp307
Rp308
ag5
(g9
S'H\xe1z\x14\xae\xc74\xc0'
p309
tp310
Rp311
ag5
(g9
S'\n\xd7\xa3p=\xca4\xc0'
p312
tp313
Rp314
ag5
(g9
S'\x85\xebQ\xb8\x1e\xc54\xc0'
p315
tp316
Rp317
ag5
(g9
S'\x00\x00\x00\x00\x00\xc04\xc0'
p318
tp319
Rp320
ag5
(g9
S'H\xe1z\x14\xae\xc74\xc0'
p321
tp322
Rp323
ag5
(g9
S'=\n\xd7\xa3p\xbd4\xc0'
p324
tp325
Rp326
ag5
(g9
S'\x00\x00\x00\x00\x00\xc04\xc0'
p327
tp328
Rp329
ag5
(g9
S'=\n\xd7\xa3p\xbd4\xc0'
p330
tp331
Rp332
ag5
(g9
S'33333\xb34\xc0'
p333
tp334
Rp335
ag5
(g9
S'\x14\xaeG\xe1z\x944\xc0'
p336
tp337
Rp338
ag5
(g9
S'\\\x8f\xc2\xf5(\x9c4\xc0'
p339
tp340
Rp341
ag5
(g9
S'\xc3\xf5(\\\x8f\x824\xc0'
p342
tp343
Rp344
ag5
(g9
S'\xf6(\\\x8f\xc2u4\xc0'
p345
tp346
Rp347
ag5
(g9
S'=\n\xd7\xa3p}4\xc0'
p348
tp349
Rp350
ag5
(g9
S'\n\xd7\xa3p=\x8a4\xc0'
p351
tp352
Rp353
ag5
(g9
S'\x1f\x85\xebQ\xb8\x9e4\xc0'
p354
tp355
Rp356
ag5
(g9
S'\n\xd7\xa3p=\x8a4\xc0'
p357
tp358
Rp359
ag5
(g9
S'\xcd\xcc\xcc\xcc\xcc\x8c4\xc0'
p360
tp361
Rp362
ag5
(g9
S'\xb8\x1e\x85\xebQx4\xc0'
p363
tp364
Rp365
ag5
(g9
S'ffffff4\xc0'
p366
tp367
Rp368
ag5
(g9
S'\xb8\x1e\x85\xebQx4\xc0'
p369
tp370
Rp371
ag5
(g9
S'\x14\xaeG\xe1z\x944\xc0'
p372
tp373
Rp374
ag5
(g9
S'\xe1z\x14\xaeG\xa14\xc0'
p375
tp376
Rp377
ag5
(g9
S'R\xb8\x1e\x85\xeb\x914\xc0'
p378
tp379
Rp380
ag5
(g9
S'\x00\x00\x00\x00\x00\x804\xc0'
p381
tp382
Rp383
ag5
(g9
S'\x14\xaeG\xe1z\x944\xc0'
p384
tp385
Rp386
ag5
(g9
S'\x85\xebQ\xb8\x1e\x854\xc0'
p387
tp388
Rp389
ag5
(g9
S'\x00\x00\x00\x00\x00\x804\xc0'
p390
tp391
Rp392
ag5
(g9
S'\x85\xebQ\xb8\x1e\x854\xc0'
p393
tp394
Rp395
ag5
(g9
S'\xe1z\x14\xaeG\xa14\xc0'
p396
tp397
Rp398
ag5
(g9
S'\xd7\xa3p=\n\x974\xc0'
p399
tp400
Rp401
ag5
(g9
S'\x85\xebQ\xb8\x1e\x854\xc0'
p402
tp403
Rp404
ag5
(g9
S'\x1f\x85\xebQ\xb8\x9e4\xc0'
p405
tp406
Rp407
ag5
(g9
S'\xa4p=\n\xd7\xa34\xc0'
p408
tp409
Rp410
ag5
(g9
S'\xa4p=\n\xd7\xa34\xc0'
p411
tp412
Rp413
ag5
(g9
S'fffff\xa64\xc0'
p414
tp415
Rp416
ag5
(g9
S'33333\xb34\xc0'
p417
tp418
Rp419
ag5
(g9
S'H\xe1z\x14\xae\xc74\xc0'
p420
tp421
Rp422
ag5
(g9
S'{\x14\xaeG\xe1\xba4\xc0'
p423
tp424
Rp425
ag5
(g9
S'=\n\xd7\xa3p\xbd4\xc0'
p426
tp427
Rp428
ag5
(g9
S'=\n\xd7\xa3p\xbd4\xc0'
p429
tp430
Rp431
ag5
(g9
S'\xaeG\xe1z\x14\xae4\xc0'
p432
tp433
Rp434
ag5
(g9
S'\xaeG\xe1z\x14\xae4\xc0'
p435
tp436
Rp437
ag5
(g9
S'33333\xb34\xc0'
p438
tp439
Rp440
ag5
(g9
S'\xaeG\xe1z\x14\xae4\xc0'
p441
tp442
Rp443
ag5
(g9
S'33333\xb34\xc0'
p444
tp445
Rp446
ag5
(g9
S'\xd7\xa3p=\n\x974\xc0'
p447
tp448
Rp449
ag5
(g9
S'=\n\xd7\xa3p}4\xc0'
p450
tp451
Rp452
ag5
(g9
S'\\\x8f\xc2\xf5(\\4\xc0'
p453
tp454
Rp455
ag5
(g9
S'\x8f\xc2\xf5(\\O4\xc0'
p456
tp457
Rp458
ag5
(g9
S'\xd7\xa3p=\nW4\xc0'
p459
tp460
Rp461
ag5
(g9
S'\x00\x00\x00\x00\x00\x804\xc0'
p462
tp463
Rp464
ag5
(g9
S'R\xb8\x1e\x85\xeb\x914\xc0'
p465
tp466
Rp467
ag5
(g9
S'\x14\xaeG\xe1z\x944\xc0'
p468
tp469
Rp470
ag5
(g9
S'\\\x8f\xc2\xf5(\x9c4\xc0'
p471
tp472
Rp473
ag5
(g9
S'{\x14\xaeG\xe1\xba4\xc0'
p474
tp475
Rp476
ag5
(g9
S'\xd7\xa3p=\n\xd74\xc0'
p477
tp478
Rp479
ag5
(g9
S'\\\x8f\xc2\xf5(\xdc4\xc0'
p480
tp481
Rp482
ag5
(g9
S'\xcd\xcc\xcc\xcc\xcc\xcc4\xc0'
p483
tp484
Rp485
ag5
(g9
S'\x8f\xc2\xf5(\\\xcf4\xc0'
p486
tp487
Rp488
ag5
(g9
S'\x14\xaeG\xe1z\xd44\xc0'
p489
tp490
Rp491
ag5
(g9
S'\x9a\x99\x99\x99\x99\xd94\xc0'
p492
tp493
Rp494
ag5
(g9
S'\\\x8f\xc2\xf5(\xdc4\xc0'
p495
tp496
Rp497
ag5
(g9
S'\\\x8f\xc2\xf5(\xdc4\xc0'
p498
tp499
Rp500
ag5
(g9
S'\xe1z\x14\xaeG\xe14\xc0'
p501
tp502
Rp503
ag5
(g9
S'\x1f\x85\xebQ\xb8\xde4\xc0'
p504
tp505
Rp506
ag5
(g9
S'\\\x8f\xc2\xf5(\xdc4\xc0'
p507
tp508
Rp509
ag5
(g9
S'\x9a\x99\x99\x99\x99\xd94\xc0'
p510
tp511
Rp512
ag5
(g9
S'\x9a\x99\x99\x99\x99\xd94\xc0'
p513
tp514
Rp515
ag5
(g9
S'fffff\xe64\xc0'
p516
tp517
Rp518
ag5
(g9
S'q=\n\xd7\xa3\xf04\xc0'
p519
tp520
Rp521
ag5
(g9
S'\xf6(\\\x8f\xc2\xf54\xc0'
p522
tp523
Rp524
ag5
(g9
S'\xf6(\\\x8f\xc2\xf54\xc0'
p525
tp526
Rp527
ag5
(g9
S'33333\xf34\xc0'
p528
tp529
Rp530
ag5
(g9
S'\xf6(\\\x8f\xc2\xf54\xc0'
p531
tp532
Rp533
ag5
(g9
S'q=\n\xd7\xa3\xf04\xc0'
p534
tp535
Rp536
ag5
(g9
S')\\\x8f\xc2\xf5\xe84\xc0'
p537
tp538
Rp539
ag5
(g9
S'\xaeG\xe1z\x14\xee4\xc0'
p540
tp541
Rp542
ag5
(g9
S'\xecQ\xb8\x1e\x85\xeb4\xc0'
p543
tp544
Rp545
ag5
(g9
S')\\\x8f\xc2\xf5\xe84\xc0'
p546
tp547
Rp548
ag5
(g9
S'\xe1z\x14\xaeG\xe14\xc0'
p549
tp550
Rp551
ag5
(g9
S'fffff\xe64\xc0'
p552
tp553
Rp554
ag5
(g9
S'\x9a\x99\x99\x99\x99\xd94\xc0'
p555
tp556
Rp557
ag5
(g9
S'\xa4p=\n\xd7\xe34\xc0'
p558
tp559
Rp560
ag5
(g9
S'\x9a\x99\x99\x99\x99\xd94\xc0'
p561
tp562
Rp563
ag5
(g9
S'\xa4p=\n\xd7\xe34\xc0'
p564
tp565
Rp566
ag5
(g9
S'\xe1z\x14\xaeG\xe14\xc0'
p567
tp568
Rp569
ag5
(g9
S'fffff\xe64\xc0'
p570
tp571
Rp572
ag5
(g9
S'q=\n\xd7\xa3\xf04\xc0'
p573
tp574
Rp575
ag5
(g9
S'\xaeG\xe1z\x14\xee4\xc0'
p576
tp577
Rp578
ag5
(g9
S'\xecQ\xb8\x1e\x85\xeb4\xc0'
p579
tp580
Rp581
ag5
(g9
S'\xaeG\xe1z\x14\xee4\xc0'
p582
tp583
Rp584
ag5
(g9
S'\xa4p=\n\xd7\xe34\xc0'
p585
tp586
Rp587
ag5
(g9
S'\xa4p=\n\xd7\xe34\xc0'
p588
tp589
Rp590
ag5
(g9
S')\\\x8f\xc2\xf5\xe84\xc0'
p591
tp592
Rp593
ag5
(g9
S'q=\n\xd7\xa3\xf04\xc0'
p594
tp595
Rp596
ag5
(g9
S'\xaeG\xe1z\x14\xee4\xc0'
p597
tp598
Rp599
ag5
(g9
S')\\\x8f\xc2\xf5\xe84\xc0'
p600
tp601
Rp602
ag5
(g9
S'q=\n\xd7\xa3\xf04\xc0'
p603
tp604
Rp605
ag5
(g9
S'q=\n\xd7\xa3\xf04\xc0'
p606
tp607
Rp608
ag5
(g9
S'q=\n\xd7\xa3\xf04\xc0'
p609
tp610
Rp611
ag5
(g9
S'q=\n\xd7\xa3\xf04\xc0'
p612
tp613
Rp614
ag5
(g9
S'q=\n\xd7\xa3\xf04\xc0'
p615
tp616
Rp617
ag5
(g9
S'q=\n\xd7\xa3\xf04\xc0'
p618
tp619
Rp620
ag5
(g9
S'\xecQ\xb8\x1e\x85\xeb4\xc0'
p621
tp622
Rp623
ag5
(g9
S'\xf6(\\\x8f\xc2\xf54\xc0'
p624
tp625
Rp626
ag5
(g9
S'\xb8\x1e\x85\xebQ\xf84\xc0'
p627
tp628
Rp629
ag5
(g9
S'\xecQ\xb8\x1e\x85\xeb4\xc0'
p630
tp631
Rp632
ag5
(g9
S')\\\x8f\xc2\xf5\xe84\xc0'
p633
tp634
Rp635
ag5
(g9
S'q=\n\xd7\xa3\xf04\xc0'
p636
tp637
Rp638
ag5
(g9
S'fffff\xe64\xc0'
p639
tp640
Rp641
ag5
(g9
S'fffff\xe64\xc0'
p642
tp643
Rp644
ag5
(g9
S'33333\xf34\xc0'
p645
tp646
Rp647
ag5
(g9
S'\xb8\x1e\x85\xebQ\xf84\xc0'
p648
tp649
Rp650
ag5
(g9
S'\xb8\x1e\x85\xebQ\xf84\xc0'
p651
tp652
Rp653
ag5
(g9
S'\xb8\x1e\x85\xebQ\xf84\xc0'
p654
tp655
Rp656
ag5
(g9
S'{\x14\xaeG\xe1\xfa4\xc0'
p657
tp658
Rp659
ag5
(g9
S'q=\n\xd7\xa3\xf04\xc0'
p660
tp661
Rp662
ag5
(g9
S'q=\n\xd7\xa3\xf04\xc0'
p663
tp664
Rp665
ag5
(g9
S'33333\xf34\xc0'
p666
tp667
Rp668
ag5
(g9
S'\xaeG\xe1z\x14\xee4\xc0'
p669
tp670
Rp671
ag5
(g9
S'\xaeG\xe1z\x14\xee4\xc0'
p672
tp673
Rp674
ag5
(g9
S'\xf6(\\\x8f\xc2\xf54\xc0'
p675
tp676
Rp677
ag5
(g9
S'\xb8\x1e\x85\xebQ\xf84\xc0'
p678
tp679
Rp680
ag5
(g9
S'\xf6(\\\x8f\xc2\xf54\xc0'
p681
tp682
Rp683
ag5
(g9
S'\xf6(\\\x8f\xc2\xf54\xc0'
p684
tp685
Rp686
ag5
(g9
S'\xb8\x1e\x85\xebQ\xf84\xc0'
p687
tp688
Rp689
ag5
(g9
S'{\x14\xaeG\xe1\xfa4\xc0'
p690
tp691
Rp692
ag5
(g9
S'{\x14\xaeG\xe1\xfa4\xc0'
p693
tp694
Rp695
ag5
(g9
S'=\n\xd7\xa3p\xfd4\xc0'
p696
tp697
Rp698
ag5
(g9
S'\xf6(\\\x8f\xc2\xf54\xc0'
p699
tp700
Rp701
ag5
(g9
S'33333\xf34\xc0'
p702
tp703
Rp704
ag5
(g9
S'\xaeG\xe1z\x14\xee4\xc0'
p705
tp706
Rp707
ag5
(g9
S'\xaeG\xe1z\x14\xee4\xc0'
p708
tp709
Rp710
ag5
(g9
S'q=\n\xd7\xa3\xf04\xc0'
p711
tp712
Rp713
ag5
(g9
S'\xaeG\xe1z\x14\xee4\xc0'
p714
tp715
Rp716
ag5
(g9
S'fffff\xe64\xc0'
p717
tp718
Rp719
ag5
(g9
S'\xa4p=\n\xd7\xe34\xc0'
p720
tp721
Rp722
ag5
(g9
S'q=\n\xd7\xa3\xf04\xc0'
p723
tp724
Rp725
ag5
(g9
S'\xecQ\xb8\x1e\x85\xeb4\xc0'
p726
tp727
Rp728
ag5
(g9
S')\\\x8f\xc2\xf5\xe84\xc0'
p729
tp730
Rp731
ag5
(g9
S'fffff\xe64\xc0'
p732
tp733
Rp734
ag5
(g9
S'q=\n\xd7\xa3\xf04\xc0'
p735
tp736
Rp737
ag5
(g9
S'fffff\xe64\xc0'
p738
tp739
Rp740
ag5
(g9
S')\\\x8f\xc2\xf5\xe84\xc0'
p741
tp742
Rp743
ag5
(g9
S'fffff\xe64\xc0'
p744
tp745
Rp746
ag5
(g9
S')\\\x8f\xc2\xf5\xe84\xc0'
p747
tp748
Rp749
ag5
(g9
S'\xe1z\x14\xaeG\xe14\xc0'
p750
tp751
Rp752
ag5
(g9
S'\xaeG\xe1z\x14\xee4\xc0'
p753
tp754
Rp755
ag5
(g9
S'\xaeG\xe1z\x14\xee4\xc0'
p756
tp757
Rp758
ag5
(g9
S'\xf6(\\\x8f\xc2\xf54\xc0'
p759
tp760
Rp761
ag5
(g9
S'q=\n\xd7\xa3\xf04\xc0'
p762
tp763
Rp764
ag5
(g9
S'\xecQ\xb8\x1e\x85\xeb4\xc0'
p765
tp766
Rp767
ag5
(g9
S'\xaeG\xe1z\x14\xee4\xc0'
p768
tp769
Rp770
ag5
(g9
S'33333\xf34\xc0'
p771
tp772
Rp773
ag5
(g9
S'33333\xf34\xc0'
p774
tp775
Rp776
ag5
(g9
S'\xaeG\xe1z\x14\xee4\xc0'
p777
tp778
Rp779
ag5
(g9
S')\\\x8f\xc2\xf5\xe84\xc0'
p780
tp781
Rp782
ag5
(g9
S'q=\n\xd7\xa3\xf04\xc0'
p783
tp784
Rp785
ag5
(g9
S'q=\n\xd7\xa3\xf04\xc0'
p786
tp787
Rp788
ag5
(g9
S'\xecQ\xb8\x1e\x85\xeb4\xc0'
p789
tp790
Rp791
ag5
(g9
S'fffff\xe64\xc0'
p792
tp793
Rp794
ag5
(g9
S')\\\x8f\xc2\xf5\xe84\xc0'
p795
tp796
Rp797
ag5
(g9
S'\xaeG\xe1z\x14\xee4\xc0'
p798
tp799
Rp800
ag5
(g9
S')\\\x8f\xc2\xf5\xe84\xc0'
p801
tp802
Rp803
ag5
(g9
S'q=\n\xd7\xa3\xf04\xc0'
p804
tp805
Rp806
ag5
(g9
S'q=\n\xd7\xa3\xf04\xc0'
p807
tp808
Rp809
ag5
(g9
S')\\\x8f\xc2\xf5\xe84\xc0'
p810
tp811
Rp812
ag5
(g9
S'\x1f\x85\xebQ\xb8\xde4\xc0'
p813
tp814
Rp815
ag5
(g9
S'\xa4p=\n\xd7\xe34\xc0'
p816
tp817
Rp818
ag5
(g9
S')\\\x8f\xc2\xf5\xe84\xc0'
p819
tp820
Rp821
ag5
(g9
S'q=\n\xd7\xa3\xf04\xc0'
p822
tp823
Rp824
ag5
(g9
S'\xa4p=\n\xd7\xe34\xc0'
p825
tp826
Rp827
ag5
(g9
S'\x1f\x85\xebQ\xb8\xde4\xc0'
p828
tp829
Rp830
ag5
(g9
S'\\\x8f\xc2\xf5(\xdc4\xc0'
p831
tp832
Rp833
ag5
(g9
S'\xe1z\x14\xaeG\xe14\xc0'
p834
tp835
Rp836
ag5
(g9
S'\xa4p=\n\xd7\xe34\xc0'
p837
tp838
Rp839
ag5
(g9
S'\xa4p=\n\xd7\xe34\xc0'
p840
tp841
Rp842
ag5
(g9
S'fffff\xe64\xc0'
p843
tp844
Rp845
ag5
(g9
S'q=\n\xd7\xa3\xf04\xc0'
p846
tp847
Rp848
ag5
(g9
S'\x1f\x85\xebQ\xb8\xde4\xc0'
p849
tp850
Rp851
ag5
(g9
S'\x9a\x99\x99\x99\x99\xd94\xc0'
p852
tp853
Rp854
ag5
(g9
S'\xe1z\x14\xaeG\xe14\xc0'
p855
tp856
Rp857
ag5
(g9
S'\xa4p=\n\xd7\xe34\xc0'
p858
tp859
Rp860
ag5
(g9
S'\xa4p=\n\xd7\xe34\xc0'
p861
tp862
Rp863
ag5
(g9
S'\x8f\xc2\xf5(\\\xcf4\xc0'
p864
tp865
Rp866
ag5
(g9
S'\x9a\x99\x99\x99\x99\xd94\xc0'
p867
tp868
Rp869
ag5
(g9
S'\x9a\x99\x99\x99\x99\xd94\xc0'
p870
tp871
Rp872
ag5
(g9
S'\xe1z\x14\xaeG\xe14\xc0'
p873
tp874
Rp875
ag5
(g9
S')\\\x8f\xc2\xf5\xe84\xc0'
p876
tp877
Rp878
ag5
(g9
S'q=\n\xd7\xa3\xf04\xc0'
p879
tp880
Rp881
ag5
(g9
S'q=\n\xd7\xa3\xf04\xc0'
p882
tp883
Rp884
ag5
(g9
S')\\\x8f\xc2\xf5\xe84\xc0'
p885
tp886
Rp887
ag5
(g9
S'\xecQ\xb8\x1e\x85\xeb4\xc0'
p888
tp889
Rp890
ag5
(g9
S'\xaeG\xe1z\x14\xee4\xc0'
p891
tp892
Rp893
ag5
(g9
S'\xaeG\xe1z\x14\xee4\xc0'
p894
tp895
Rp896
ag5
(g9
S'\xaeG\xe1z\x14\xee4\xc0'
p897
tp898
Rp899
ag5
(g9
S'\xecQ\xb8\x1e\x85\xeb4\xc0'
p900
tp901
Rp902
ag5
(g9
S'\xecQ\xb8\x1e\x85\xeb4\xc0'
p903
tp904
Rp905
ag5
(g9
S'fffff\xe64\xc0'
p906
tp907
Rp908
ag5
(g9
S'\xe1z\x14\xaeG\xe14\xc0'
p909
tp910
Rp911
ag5
(g9
S'\xe1z\x14\xaeG\xe14\xc0'
p912
tp913
Rp914
ag5
(g9
S'\xecQ\xb8\x1e\x85\xeb4\xc0'
p915
tp916
Rp917
ag5
(g9
S'33333\xf34\xc0'
p918
tp919
Rp920
ag5
(g9
S'{\x14\xaeG\xe1\xfa4\xc0'
p921
tp922
Rp923
ag5
(g9
S'\xb8\x1e\x85\xebQ\xf84\xc0'
p924
tp925
Rp926
ag5
(g9
S'33333\xf34\xc0'
p927
tp928
Rp929
ag5
(g9
S'\xaeG\xe1z\x14\xee4\xc0'
p930
tp931
Rp932
ag5
(g9
S'\xecQ\xb8\x1e\x85\xeb4\xc0'
p933
tp934
Rp935
ag5
(g9
S'q=\n\xd7\xa3\xf04\xc0'
p936
tp937
Rp938
ag5
(g9
S'\xaeG\xe1z\x14\xee4\xc0'
p939
tp940
Rp941
ag5
(g9
S'\xecQ\xb8\x1e\x85\xeb4\xc0'
p942
tp943
Rp944
ag5
(g9
S'\xaeG\xe1z\x14\xee4\xc0'
p945
tp946
Rp947
ag5
(g9
S'\xaeG\xe1z\x14\xee4\xc0'
p948
tp949
Rp950
ag5
(g9
S')\\\x8f\xc2\xf5\xe84\xc0'
p951
tp952
Rp953
ag5
(g9
S')\\\x8f\xc2\xf5\xe84\xc0'
p954
tp955
Rp956
ag5
(g9
S'fffff\xe64\xc0'
p957
tp958
Rp959
ag5
(g9
S'\\\x8f\xc2\xf5(\xdc4\xc0'
p960
tp961
Rp962
ag5
(g9
S'\xe1z\x14\xaeG\xe14\xc0'
p963
tp964
Rp965
ag5
(g9
S'\xe1z\x14\xaeG\xe14\xc0'
p966
tp967
Rp968
ag5
(g9
S'\xaeG\xe1z\x14\xee4\xc0'
p969
tp970
Rp971
ag5
(g9
S'\xecQ\xb8\x1e\x85\xeb4\xc0'
p972
tp973
Rp974
ag5
(g9
S'\xf6(\\\x8f\xc2\xf54\xc0'
p975
tp976
Rp977
ag5
(g9
S'\xaeG\xe1z\x14\xee4\xc0'
p978
tp979
Rp980
ag5
(g9
S'\xe1z\x14\xaeG\xe14\xc0'
p981
tp982
Rp983
ag5
(g9
S')\\\x8f\xc2\xf5\xe84\xc0'
p984
tp985
Rp986
ag5
(g9
S')\\\x8f\xc2\xf5\xe84\xc0'
p987
tp988
Rp989
ag5
(g9
S'fffff\xe64\xc0'
p990
tp991
Rp992
ag5
(g9
S')\\\x8f\xc2\xf5\xe84\xc0'
p993
tp994
Rp995
ag5
(g9
S'33333\xf34\xc0'
p996
tp997
Rp998
ag5
(g9
S'\xecQ\xb8\x1e\x85\xeb4\xc0'
p999
tp1000
Rp1001
ag5
(g9
S'q=\n\xd7\xa3\xf04\xc0'
p1002
tp1003
Rp1004
ag5
(g9
S'q=\n\xd7\xa3\xf04\xc0'
p1005
tp1006
Rp1007
ag5
(g9
S'\xf6(\\\x8f\xc2\xf54\xc0'
p1008
tp1009
Rp1010
ag5
(g9
S'\xa4p=\n\xd7\xe34\xc0'
p1011
tp1012
Rp1013
ag5
(g9
S'\xe1z\x14\xaeG\xe14\xc0'
p1014
tp1015
Rp1016
ag5
(g9
S'\x14\xaeG\xe1z\xd44\xc0'
p1017
tp1018
Rp1019
ag5
(g9
S'\x14\xaeG\xe1z\xd44\xc0'
p1020
tp1021
Rp1022
ag5
(g9
S'\\\x8f\xc2\xf5(\xdc4\xc0'
p1023
tp1024
Rp1025
ag5
(g9
S'\x1f\x85\xebQ\xb8\xde4\xc0'
p1026
tp1027
Rp1028
ag5
(g9
S'\xa4p=\n\xd7\xe34\xc0'
p1029
tp1030
Rp1031
ag5
(g9
S'\x1f\x85\xebQ\xb8\xde4\xc0'
p1032
tp1033
Rp1034
ag5
(g9
S')\\\x8f\xc2\xf5\xe84\xc0'
p1035
tp1036
Rp1037
ag5
(g9
S'fffff\xe64\xc0'
p1038
tp1039
Rp1040
ag5
(g9
S'fffff\xe64\xc0'
p1041
tp1042
Rp1043
ag5
(g9
S'q=\n\xd7\xa3\xf04\xc0'
p1044
tp1045
Rp1046
ag5
(g9
S'33333\xf34\xc0'
p1047
tp1048
Rp1049
ag5
(g9
S'q=\n\xd7\xa3\xf04\xc0'
p1050
tp1051
Rp1052
ag5
(g9
S'\xecQ\xb8\x1e\x85\xeb4\xc0'
p1053
tp1054
Rp1055
ag5
(g9
S'33333\xf34\xc0'
p1056
tp1057
Rp1058
ag5
(g9
S'\xf6(\\\x8f\xc2\xf54\xc0'
p1059
tp1060
Rp1061
ag5
(g9
S'\xf6(\\\x8f\xc2\xf54\xc0'
p1062
tp1063
Rp1064
ag5
(g9
S'fffff\xe64\xc0'
p1065
tp1066
Rp1067
ag5
(g9
S'\xe1z\x14\xaeG\xe14\xc0'
p1068
tp1069
Rp1070
ag5
(g9
S'\\\x8f\xc2\xf5(\xdc4\xc0'
p1071
tp1072
Rp1073
ag5
(g9
S'\x9a\x99\x99\x99\x99\xd94\xc0'
p1074
tp1075
Rp1076
ag5
(g9
S'fffff\xe64\xc0'
p1077
tp1078
Rp1079
ag5
(g9
S'\xf6(\\\x8f\xc2\xf54\xc0'
p1080
tp1081
Rp1082
ag5
(g9
S'33333\xf34\xc0'
p1083
tp1084
Rp1085
ag5
(g9
S'\xaeG\xe1z\x14\xee4\xc0'
p1086
tp1087
Rp1088
ag5
(g9
S'fffff\xe64\xc0'
p1089
tp1090
Rp1091
ag5
(g9
S'\xaeG\xe1z\x14\xee4\xc0'
p1092
tp1093
Rp1094
ag5
(g9
S'\xaeG\xe1z\x14\xee4\xc0'
p1095
tp1096
Rp1097
ag5
(g9
S'\xf6(\\\x8f\xc2\xf54\xc0'
p1098
tp1099
Rp1100
ag5
(g9
S'33333\xf34\xc0'
p1101
tp1102
Rp1103
ag5
(g9
S'\xaeG\xe1z\x14\xee4\xc0'
p1104
tp1105
Rp1106
ag5
(g9
S')\\\x8f\xc2\xf5\xe84\xc0'
p1107
tp1108
Rp1109
ag5
(g9
S'\xecQ\xb8\x1e\x85\xeb4\xc0'
p1110
tp1111
Rp1112
ag5
(g9
S'\xaeG\xe1z\x14\xee4\xc0'
p1113
tp1114
Rp1115
ag5
(g9
S'\xecQ\xb8\x1e\x85\xeb4\xc0'
p1116
tp1117
Rp1118
ag5
(g9
S'fffff\xe64\xc0'
p1119
tp1120
Rp1121
ag5
(g9
S'\x1f\x85\xebQ\xb8\xde4\xc0'
p1122
tp1123
Rp1124
ag5
(g9
S'\xe1z\x14\xaeG\xe14\xc0'
p1125
tp1126
Rp1127
ag5
(g9
S'fffff\xe64\xc0'
p1128
tp1129
Rp1130
ag5
(g9
S'fffff\xe64\xc0'
p1131
tp1132
Rp1133
ag5
(g9
S'fffff\xe64\xc0'
p1134
tp1135
Rp1136
ag5
(g9
S')\\\x8f\xc2\xf5\xe84\xc0'
p1137
tp1138
Rp1139
ag5
(g9
S'q=\n\xd7\xa3\xf04\xc0'
p1140
tp1141
Rp1142
ag5
(g9
S'q=\n\xd7\xa3\xf04\xc0'
p1143
tp1144
Rp1145
ag5
(g9
S'q=\n\xd7\xa3\xf04\xc0'
p1146
tp1147
Rp1148
ag5
(g9
S'{\x14\xaeG\xe1\xfa4\xc0'
p1149
tp1150
Rp1151
ag5
(g9
S'q=\n\xd7\xa3\xf04\xc0'
p1152
tp1153
Rp1154
ag5
(g9
S'\xecQ\xb8\x1e\x85\xeb4\xc0'
p1155
tp1156
Rp1157
ag5
(g9
S'fffff\xe64\xc0'
p1158
tp1159
Rp1160
ag5
(g9
S'q=\n\xd7\xa3\xf04\xc0'
p1161
tp1162
Rp1163
ag5
(g9
S'\xaeG\xe1z\x14\xee4\xc0'
p1164
tp1165
Rp1166
ag5
(g9
S'\xecQ\xb8\x1e\x85\xeb4\xc0'
p1167
tp1168
Rp1169
ag5
(g9
S'33333\xf34\xc0'
p1170
tp1171
Rp1172
ag5
(g9
S'\xecQ\xb8\x1e\x85\xeb4\xc0'
p1173
tp1174
Rp1175
ag5
(g9
S'\xaeG\xe1z\x14\xee4\xc0'
p1176
tp1177
Rp1178
ag5
(g9
S'\xecQ\xb8\x1e\x85\xeb4\xc0'
p1179
tp1180
Rp1181
ag5
(g9
S'q=\n\xd7\xa3\xf04\xc0'
p1182
tp1183
Rp1184
ag5
(g9
S'\xb8\x1e\x85\xebQ\xf84\xc0'
p1185
tp1186
Rp1187
ag5
(g9
S'{\x14\xaeG\xe1\xfa4\xc0'
p1188
tp1189
Rp1190
ag5
(g9
S'=\n\xd7\xa3p\xfd4\xc0'
p1191
tp1192
Rp1193
ag5
(g9
S'{\x14\xaeG\xe1\xfa4\xc0'
p1194
tp1195
Rp1196
ag5
(g9
S'33333\xf34\xc0'
p1197
tp1198
Rp1199
ag5
(g9
S'\xf6(\\\x8f\xc2\xf54\xc0'
p1200
tp1201
Rp1202
ag5
(g9
S'\xb8\x1e\x85\xebQ\xf84\xc0'
p1203
tp1204
Rp1205
ag5
(g9
S'{\x14\xaeG\xe1\xfa4\xc0'
p1206
tp1207
Rp1208
ag5
(g9
S'{\x14\xaeG\xe1\xfa4\xc0'
p1209
tp1210
Rp1211
ag5
(g9
S'\xf6(\\\x8f\xc2\xf54\xc0'
p1212
tp1213
Rp1214
ag5
(g9
S'\xf6(\\\x8f\xc2\xf54\xc0'
p1215
tp1216
Rp1217
ag5
(g9
S'q=\n\xd7\xa3\xf04\xc0'
p1218
tp1219
Rp1220
ag5
(g9
S'\xb8\x1e\x85\xebQ\xf84\xc0'
p1221
tp1222
Rp1223
ag5
(g9
S'\xf6(\\\x8f\xc2\xf54\xc0'
p1224
tp1225
Rp1226
ag5
(g9
S'\xb8\x1e\x85\xebQ\xf84\xc0'
p1227
tp1228
Rp1229
ag5
(g9
S'\xf6(\\\x8f\xc2\xf54\xc0'
p1230
tp1231
Rp1232
ag5
(g9
S'q=\n\xd7\xa3\xf04\xc0'
p1233
tp1234
Rp1235
ag5
(g9
S'q=\n\xd7\xa3\xf04\xc0'
p1236
tp1237
Rp1238
ag5
(g9
S'33333\xf34\xc0'
p1239
tp1240
Rp1241
ag5
(g9
S'=\n\xd7\xa3p\xfd4\xc0'
p1242
tp1243
Rp1244
ag5
(g9
S'\xf6(\\\x8f\xc2\xf54\xc0'
p1245
tp1246
Rp1247
ag5
(g9
S'\xecQ\xb8\x1e\x85\xeb4\xc0'
p1248
tp1249
Rp1250
ag5
(g9
S'\xe1z\x14\xaeG\xe14\xc0'
p1251
tp1252
Rp1253
ag5
(g9
S'fffff\xe64\xc0'
p1254
tp1255
Rp1256
asS'learning_rate_log'
p1257
(lp1258
F0.001
aF0.001
aF0.001
aF0.001
aF0.001
aF0.001
aF0.001
aF0.001
aF0.001
aF0.001
aF0.001
aF0.001
aF0.001
aF0.001
aF0.001
aF0.001
aF0.001
aF0.001
aF0.001
aF0.001
aF0.001
aF0.001
aF0.001
aF0.001
aF0.001
aF0.001
aF0.001
aF0.001
aF0.001
aF0.001
aF0.001
aF0.001
aF0.001
aF0.001
aF0.001
aF0.001
aF0.001
aF0.001
aF0.001
aF0.001
aF0.001
aF0.001
aF0.001
aF0.001
aF0.001
aF0.001
aF0.001
aF0.001
aF0.001
aF0.001
aF0.001
aF0.001
aF0.001
aF0.001
aF0.001
aF0.001
aF0.001
aF0.001
aF0.001
aF0.001
aF0.001
aF0.001
aF0.001
aF0.001
aF0.001
aF0.001
aF0.001
aF0.001
aF0.001
aF0.001
aF0.001
aF0.001
aF0.001
aF0.001
aF0.001
aF0.001
aF0.001
aF0.001
aF0.001
aF0.001
aF0.001
aF0.001
aF0.001
aF0.001
aF0.001
aF0.001
aF0.001
aF0.001
aF0.001
aF0.001
aF0.001
aF0.001
aF0.001
aF0.001
aF0.001
aF0.00099875
aF0.0009975000000000001
aF0.00099625
aF0.000995
aF0.00099375
aF0.0009925000000000001
aF0.00099125
aF0.00099
aF0.00098875
aF0.0009875
aF0.00098625
aF0.000985
aF0.00098375
aF0.0009825
aF0.00098125
aF0.00098
aF0.00097875
aF0.0009775
aF0.00097625
aF0.0009750000000000001
aF0.00097375
aF0.0009725000000000001
aF0.00097125
aF0.00097
aF0.00096875
aF0.0009675
aF0.00096625
aF0.000965
aF0.00096375
aF0.0009625
aF0.00096125
aF0.00096
aF0.00095875
aF0.0009575
aF0.0009562500000000001
aF0.000955
aF0.0009537500000000001
aF0.0009525
aF0.0009512500000000001
aF0.00095
aF0.00094875
aF0.0009475
aF0.00094625
aF0.000945
aF0.00094375
aF0.0009425
aF0.00094125
aF0.00094
aF0.00093875
aF0.0009375
aF0.00093625
aF0.0009350000000000001
aF0.00093375
aF0.0009325000000000001
aF0.00093125
aF0.00093
aF0.00092875
aF0.0009275
aF0.00092625
aF0.000925
aF0.00092375
aF0.0009225
aF0.00092125
aF0.00092
aF0.00091875
aF0.0009175
aF0.00091625
aF0.000915
aF0.0009137500000000001
aF0.0009125
aF0.0009112500000000001
aF0.00091
aF0.00090875
aF0.0009075
aF0.00090625
aF0.000905
aF0.00090375
aF0.0009025
aF0.00090125
aF0.0009
aF0.00089875
aF0.0008975000000000001
aF0.00089625
aF0.000895
aF0.00089375
aF0.0008925000000000001
aF0.00089125
aF0.0008900000000000001
aF0.00088875
aF0.0008875
aF0.00088625
aF0.000885
aF0.00088375
aF0.0008825
aF0.00088125
aF0.00088
aF0.00087875
aF0.0008775
aF0.0008762500000000001
aF0.000875
aF0.00087375
aF0.0008725
aF0.0008712500000000001
aF0.00087
aF0.00086875
aF0.0008675
aF0.00086625
aF0.000865
aF0.00086375
aF0.0008625
aF0.00086125
aF0.00086
aF0.00085875
aF0.0008575
aF0.00085625
aF0.0008550000000000001
aF0.00085375
aF0.0008525
aF0.00085125
aF0.0008500000000000001
aF0.00084875
aF0.0008475000000000001
aF0.00084625
aF0.000845
aF0.00084375
aF0.0008425
aF0.00084125
aF0.00084
aF0.00083875
aF0.0008375
aF0.00083625
aF0.000835
aF0.0008337500000000001
aF0.0008325
aF0.00083125
aF0.00083
aF0.0008287500000000001
aF0.0008275
aF0.00082625
aF0.000825
aF0.00082375
aF0.0008225
aF0.00082125
aF0.00082
aF0.00081875
aF0.0008175000000000001
aF0.00081625
aF0.000815
aF0.00081375
aF0.0008125000000000001
aF0.00081125
aF0.00081
aF0.00080875
aF0.0008075000000000001
aF0.00080625
aF0.0008049999999999999
aF0.00080375
aF0.0008025
aF0.00080125
aF0.0008
aF0.00079875
aF0.0007975
aF0.0007962500000000001
aF0.000795
aF0.00079375
aF0.0007925
aF0.0007912500000000001
aF0.00079
aF0.0007887500000000001
aF0.0007875
aF0.0007862500000000001
aF0.000785
aF0.00078375
aF0.0007825
aF0.00078125
aF0.00078
aF0.00077875
aF0.0007775
aF0.00077625
aF0.000775
aF0.00077375
aF0.0007725
aF0.00077125
aF0.0007700000000000001
aF0.00076875
aF0.0007675
aF0.00076625
aF0.0007650000000000001
aF0.00076375
aF0.0007625
aF0.00076125
aF0.00076
aF0.00075875
aF0.0007575
aF0.00075625
aF0.000755
aF0.0007537500000000001
aF0.0007525
aF0.00075125
aF0.00075
aF0.0007487500000000001
aF0.0007475
aF0.0007462500000000001
aF0.000745
aF0.00074375
aF0.0007425
aF0.00074125
aF0.00074
aF0.00073875
aF0.0007375
aF0.00073625
aF0.000735
aF0.00073375
aF0.0007325000000000001
aF0.00073125
aF0.00073
aF0.00072875
aF0.0007275000000000001
aF0.00072625
aF0.000725
aF0.00072375
aF0.0007225
aF0.00072125
aF0.0007199999999999999
aF0.00071875
aF0.0007175
aF0.0007162500000000001
aF0.000715
aF0.00071375
aF0.0007125
aF0.0007112500000000001
aF0.00071
aF0.00070875
aF0.0007075
aF0.0007062500000000001
aF0.000705
aF0.00070375
aF0.0007025
aF0.00070125
aF0.0007000000000000001
aF0.0006987499999999999
aF0.0006975
aF0.00069625
aF0.0006950000000000001
aF0.0006937499999999999
aF0.0006925
aF0.00069125
aF0.0006900000000000001
aF0.0006887499999999999
aF0.0006875
aF0.00068625
aF0.0006850000000000001
aF0.0006837500000000001
aF0.0006825
aF0.00068125
aF0.00068
aF0.0006787500000000001
aF0.0006774999999999999
aF0.00067625
aF0.000675
aF0.0006737500000000001
aF0.0006724999999999999
aF0.00067125
aF0.00067
aF0.0006687500000000001
aF0.0006675
aF0.00066625
aF0.000665
aF0.0006637500000000001
aF0.0006625
aF0.0006612499999999999
aF0.00066
aF0.00065875
aF0.0006575
aF0.00065625
aF0.000655
aF0.00065375
aF0.0006525000000000001
aF0.00065125
aF0.00065
aF0.00064875
aF0.0006475000000000001
aF0.00064625
aF0.000645
aF0.00064375
aF0.0006425000000000001
aF0.00064125
aF0.00064
aF0.00063875
aF0.0006375
aF0.00063625
aF0.000635
aF0.00063375
aF0.0006325
aF0.00063125
aF0.00063
aF0.00062875
aF0.0006275
aF0.00062625
aF0.000625
aF0.0006237500000000001
aF0.0006225
aF0.0006212500000000001
aF0.00062
aF0.00061875
aF0.0006175
aF0.00061625
aF0.000615
aF0.00061375
aF0.0006125
aF0.00061125
aF0.00061
aF0.00060875
aF0.0006075
aF0.00060625
aF0.0006050000000000001
aF0.00060375
aF0.0006025
aF0.00060125
aF0.0006000000000000001
asS'exploration_log'
p1259
(lp1260
F0.194
aF0.193
aF0.192
aF0.191
aF0.19
aF0.189
aF0.188
aF0.187
aF0.186
aF0.185
aF0.184
aF0.183
aF0.18200000000000002
aF0.181
aF0.18
aF0.17900000000000002
aF0.17800000000000002
aF0.17700000000000002
aF0.17600000000000002
aF0.17500000000000002
aF0.17400000000000002
aF0.17300000000000001
aF0.17200000000000001
aF0.171
aF0.17
aF0.169
aF0.168
aF0.167
aF0.166
aF0.165
aF0.164
aF0.163
aF0.162
aF0.161
aF0.16
aF0.159
aF0.158
aF0.157
aF0.156
aF0.155
aF0.154
aF0.15300000000000002
aF0.15200000000000002
aF0.15100000000000002
aF0.15000000000000002
aF0.14900000000000002
aF0.14800000000000002
aF0.14700000000000002
aF0.14600000000000002
aF0.14500000000000002
aF0.14400000000000002
aF0.14300000000000002
aF0.14200000000000002
aF0.14100000000000001
aF0.14
aF0.139
aF0.138
aF0.137
aF0.136
aF0.135
aF0.134
aF0.133
aF0.132
aF0.131
aF0.13
aF0.129
aF0.128
aF0.127
aF0.126
aF0.125
aF0.124
aF0.123
aF0.122
aF0.121
aF0.12
aF0.119
aF0.11800000000000001
aF0.117
aF0.116
aF0.115
aF0.114
aF0.113
aF0.112
aF0.111
aF0.11
aF0.109
aF0.108
aF0.107
aF0.10600000000000001
aF0.10500000000000001
aF0.10400000000000001
aF0.10300000000000001
aF0.10200000000000001
aF0.101
aF0.1
aF0.099775
aF0.09955
aF0.09932500000000001
aF0.09910000000000001
aF0.098875
aF0.09865
aF0.098425
aF0.09820000000000001
aF0.097975
aF0.09775
aF0.097525
aF0.09730000000000001
aF0.09707500000000001
aF0.09685
aF0.096625
aF0.0964
aF0.09617500000000001
aF0.09595000000000001
aF0.095725
aF0.0955
aF0.095275
aF0.09505000000000001
aF0.094825
aF0.0946
aF0.094375
aF0.09415000000000001
aF0.09392500000000001
aF0.0937
aF0.093475
aF0.09325
aF0.09302500000000001
aF0.09280000000000001
aF0.092575
aF0.09235
aF0.09212500000000001
aF0.09190000000000001
aF0.091675
aF0.09145
aF0.091225
aF0.091
aF0.09077500000000001
aF0.09055
aF0.090325
aF0.0901
aF0.08987500000000001
aF0.08965000000000001
aF0.089425
aF0.0892
aF0.088975
aF0.08875000000000001
aF0.088525
aF0.0883
aF0.088075
aF0.08785
aF0.08762500000000001
aF0.0874
aF0.087175
aF0.08695
aF0.08672500000000001
aF0.08650000000000001
aF0.086275
aF0.08605
aF0.085825
aF0.08560000000000001
aF0.085375
aF0.08515
aF0.084925
aF0.0847
aF0.08447500000000001
aF0.08425
aF0.084025
aF0.0838
aF0.08357500000000001
aF0.08335000000000001
aF0.083125
aF0.0829
aF0.082675
aF0.08245
aF0.082225
aF0.082
aF0.081775
aF0.08155000000000001
aF0.08132500000000001
aF0.0811
aF0.080875
aF0.08065
aF0.080425
aF0.08020000000000001
aF0.079975
aF0.07975
aF0.079525
aF0.07930000000000001
aF0.079075
aF0.07885
aF0.078625
aF0.0784
aF0.07817500000000001
aF0.07795
aF0.077725
aF0.0775
aF0.07727500000000001
aF0.07705000000000001
aF0.076825
aF0.0766
aF0.076375
aF0.07615
aF0.075925
aF0.0757
aF0.075475
aF0.07525
aF0.07502500000000001
aF0.0748
aF0.074575
aF0.07435
aF0.074125
aF0.07390000000000001
aF0.073675
aF0.07345
aF0.073225
aF0.07300000000000001
aF0.072775
aF0.07255
aF0.072325
aF0.0721
aF0.071875
aF0.07165
aF0.071425
aF0.0712
aF0.070975
aF0.07075000000000001
aF0.070525
aF0.0703
aF0.070075
aF0.06985
aF0.06962499999999999
aF0.0694
aF0.069175
aF0.06895000000000001
aF0.06872500000000001
aF0.0685
aF0.068275
aF0.06805
aF0.067825
aF0.0676
aF0.067375
aF0.06715
aF0.06692500000000001
aF0.06670000000000001
aF0.066475
aF0.06625
aF0.066025
aF0.0658
aF0.065575
aF0.06534999999999999
aF0.065125
aF0.0649
aF0.06467500000000001
aF0.06445000000000001
aF0.064225
aF0.064
aF0.063775
aF0.06355
aF0.063325
aF0.0631
aF0.062875
aF0.06265000000000001
aF0.062425
aF0.062200000000000005
aF0.061975
aF0.06175
aF0.061525
aF0.0613
aF0.061075000000000004
aF0.06085
aF0.060625
aF0.0604
aF0.060175
aF0.05995
aF0.059725
aF0.0595
aF0.059275
aF0.05905
aF0.058825
aF0.0586
aF0.058374999999999996
aF0.05815
aF0.057925
aF0.0577
aF0.057475000000000005
aF0.05725
aF0.057025
aF0.0568
aF0.056575
aF0.056350000000000004
aF0.056125
aF0.0559
aF0.055675
aF0.05545
aF0.055225
aF0.055
aF0.054775000000000004
aF0.05455
aF0.054325000000000005
aF0.0541
aF0.053875000000000006
aF0.053649999999999996
aF0.053425
aF0.0532
aF0.052975
aF0.05275
aF0.052525
aF0.0523
aF0.052075
aF0.05185
aF0.051625000000000004
aF0.051399999999999994
aF0.051175
aF0.050949999999999995
aF0.050725
aF0.050499999999999996
aF0.050275
aF0.05005
aF0.049825
aF0.0496
aF0.049375
aF0.049150000000000006
aF0.048924999999999996
aF0.04870000000000001
aF0.048475
aF0.04825
aF0.048025
aF0.0478
aF0.047575
aF0.04735
aF0.047125
aF0.046900000000000004
aF0.046674999999999994
aF0.04645
aF0.046224999999999995
aF0.046
aF0.045774999999999996
aF0.04555
aF0.045325
aF0.0451
aF0.044875
aF0.04465
aF0.04442499999999999
aF0.044199999999999996
aF0.04397499999999999
aF0.04375
aF0.043525
aF0.0433
aF0.043075
aF0.04285
aF0.042625
aF0.0424
aF0.042175000000000004
aF0.041949999999999994
aF0.041725000000000005
aF0.041499999999999995
aF0.041275
aF0.041049999999999996
aF0.040825
aF0.0406
aF0.040375
aF0.04015
aF0.039925
aF0.03969999999999999
aF0.039474999999999996
aF0.03924999999999999
aF0.039025
aF0.038799999999999994
aF0.038575
aF0.038349999999999995
aF0.038125
aF0.0379
aF0.037675
aF0.03745
aF0.037224999999999994
aF0.037000000000000005
aF0.036775
aF0.03655
aF0.036324999999999996
aF0.03610000000000001
aF0.03587499999999999
aF0.03565
aF0.035425
aF0.035199999999999995
aF0.03497499999999999
aF0.03475
aF0.034525
aF0.0343
aF0.034074999999999994
aF0.033850000000000005
aF0.03362499999999999
aF0.0334
aF0.033174999999999996
aF0.03294999999999999
aF0.03272499999999999
aF0.0325
aF0.032275
aF0.032049999999999995
aF0.031825000000000006
aF0.0316
aF0.031375
aF0.031149999999999997
aF0.030924999999999994
aF0.03069999999999999
aF0.030475000000000002
aF0.03025
aF0.030024999999999996
aF0.029799999999999993
aF0.029575000000000004
aF0.02935
aF0.029124999999999998
aF0.028899999999999995
aF0.028674999999999992
aF0.02844999999999999
aF0.028225
aF0.027999999999999997
asS'best_mean_log'
p1261
(lp1262
g5
(g9
S'\x00\x00\x00\x00\x00\x804\xc0'
p1263
tp1264
Rp1265
ag1265
ag1265
ag1265
ag5
(g9
S'=\n\xd7\xa3p}4\xc0'
p1266
tp1267
Rp1268
ag1268
ag1268
ag5
(g9
S'\xf6(\\\x8f\xc2u4\xc0'
p1269
tp1270
Rp1271
ag5
(g9
S'\x14\xaeG\xe1zT4\xc0'
p1272
tp1273
Rp1274
ag5
(g9
S'{\x14\xaeG\xe1:4\xc0'
p1275
tp1276
Rp1277
ag5
(g9
S'\xecQ\xb8\x1e\x85+4\xc0'
p1278
tp1279
Rp1280
ag5
(g9
S'\\\x8f\xc2\xf5(\x1c4\xc0'
p1281
tp1282
Rp1283
ag1283
ag5
(g9
S'\xd7\xa3p=\n\x174\xc0'
p1284
tp1285
Rp1286
ag1286
ag5
(g9
S'\n\xd7\xa3p=\n4\xc0'
p1287
tp1288
Rp1289
ag5
(g9
S'\xb8\x1e\x85\xebQ\xf83\xc0'
p1290
tp1291
Rp1292
ag5
(g9
S'\\\x8f\xc2\xf5(\xdc3\xc0'
p1293
tp1294
Rp1295
ag5
(g9
S'\x9a\x99\x99\x99\x99\xd93\xc0'
p1296
tp1297
Rp1298
ag1298
ag1298
ag1298
ag1298
ag5
(g9
S')\\\x8f\xc2\xf5\xa83\xc0'
p1299
tp1300
Rp1301
ag5
(g9
S'H\xe1z\x14\xaeG3\xc0'
p1302
tp1303
Rp1304
ag5
(g9
S'=\n\xd7\xa3p\xfd2\xc0'
p1305
tp1306
Rp1307
ag5
(g9
S'\xd7\xa3p=\n\xd72\xc0'
p1308
tp1309
Rp1310
ag5
(g9
S'fffff\xa62\xc0'
p1311
tp1312
Rp1313
ag1313
ag1313
ag1313
ag1313
ag1313
ag1313
ag1313
ag1313
ag1313
ag1313
ag1313
ag1313
ag1313
ag1313
ag1313
ag1313
ag1313
ag1313
ag1313
ag1313
ag1313
ag1313
ag1313
ag1313
ag1313
ag1313
ag1313
ag1313
ag1313
ag1313
ag1313
ag1313
ag1313
ag1313
ag1313
ag1313
ag1313
ag1313
ag1313
ag1313
ag1313
ag1313
ag1313
ag1313
ag1313
ag1313
ag1313
ag1313
ag1313
ag1313
ag1313
ag1313
ag1313
ag1313
ag1313
ag1313
ag1313
ag1313
ag1313
ag1313
ag1313
ag1313
ag1313
ag1313
ag1313
ag1313
ag1313
ag1313
ag1313
ag1313
ag1313
ag1313
ag1313
ag1313
ag1313
ag1313
ag1313
ag1313
ag1313
ag1313
ag1313
ag1313
ag1313
ag1313
ag1313
ag1313
ag1313
ag1313
ag1313
ag1313
ag1313
ag1313
ag1313
ag1313
ag1313
ag1313
ag1313
ag1313
ag1313
ag1313
ag1313
ag1313
ag1313
ag1313
ag1313
ag1313
ag1313
ag1313
ag1313
ag1313
ag1313
ag1313
ag1313
ag1313
ag1313
ag1313
ag1313
ag1313
ag1313
ag1313
ag1313
ag1313
ag1313
ag1313
ag1313
ag1313
ag1313
ag1313
ag1313
ag1313
ag1313
ag1313
ag1313
ag1313
ag1313
ag1313
ag1313
ag1313
ag1313
ag1313
ag1313
ag1313
ag1313
ag1313
ag1313
ag1313
ag1313
ag1313
ag1313
ag1313
ag1313
ag1313
ag1313
ag1313
ag1313
ag1313
ag1313
ag1313
ag1313
ag1313
ag1313
ag1313
ag1313
ag1313
ag1313
ag1313
ag1313
ag1313
ag1313
ag1313
ag1313
ag1313
ag1313
ag1313
ag1313
ag1313
ag1313
ag1313
ag1313
ag1313
ag1313
ag1313
ag1313
ag1313
ag1313
ag1313
ag1313
ag1313
ag1313
ag1313
ag1313
ag1313
ag1313
ag1313
ag1313
ag1313
ag1313
ag1313
ag1313
ag1313
ag1313
ag1313
ag1313
ag1313
ag1313
ag1313
ag1313
ag1313
ag1313
ag1313
ag1313
ag1313
ag1313
ag1313
ag1313
ag1313
ag1313
ag1313
ag1313
ag1313
ag1313
ag1313
ag1313
ag1313
ag1313
ag1313
ag1313
ag1313
ag1313
ag1313
ag1313
ag1313
ag1313
ag1313
ag1313
ag1313
ag1313
ag1313
ag1313
ag1313
ag1313
ag1313
ag1313
ag1313
ag1313
ag1313
ag1313
ag1313
ag1313
ag1313
ag1313
ag1313
ag1313
ag1313
ag1313
ag1313
ag1313
ag1313
ag1313
ag1313
ag1313
ag1313
ag1313
ag1313
ag1313
ag1313
ag1313
ag1313
ag1313
ag1313
ag1313
ag1313
ag1313
ag1313
ag1313
ag1313
ag1313
ag1313
ag1313
ag1313
ag1313
ag1313
ag1313
ag1313
ag1313
ag1313
ag1313
ag1313
ag1313
ag1313
ag1313
ag1313
ag1313
ag1313
ag1313
ag1313
ag1313
ag1313
ag1313
ag1313
ag1313
ag1313
ag1313
ag1313
ag1313
ag1313
ag1313
ag1313
ag1313
ag1313
ag1313
ag1313
ag1313
ag1313
ag1313
ag1313
ag1313
ag1313
ag1313
ag1313
ag1313
ag1313
ag1313
ag1313
ag1313
ag1313
ag1313
ag1313
ag1313
ag1313
ag1313
ag1313
ag1313
ag1313
ag1313
ag1313
ag1313
ag1313
ag1313
ag1313
ag1313
ag1313
ag1313
ag1313
ag1313
ag1313
ag1313
ag1313
ag1313
ag1313
ag1313
ag1313
ag1313
ag1313
ag1313
ag1313
ag1313
ag1313
ag1313
ag1313
ag1313
ag1313
ag1313
ag1313
ag1313
ag1313
ag1313
ag1313
ag1313
ag1313
ag1313
ag1313
ag1313
ag1313
ag1313
ag1313
ag1313
ag1313
ag1313
ag1313
ag1313
ag1313
ag1313
ag1313
ag1313
ag1313
ag1313
asS'episodes_log'
p1314
(lp1315
I204
aI240
aI275
aI310
aI344
aI379
aI413
aI446
aI479
aI511
aI545
aI578
aI611
aI642
aI675
aI706
aI738
aI770
aI799
aI830
aI859
aI890
aI919
aI946
aI970
aI996
aI1023
aI1048
aI1074
aI1100
aI1128
aI1156
aI1183
aI1208
aI1233
aI1258
aI1285
aI1310
aI1337
aI1362
aI1389
aI1415
aI1443
aI1468
aI1495
aI1520
aI1547
aI1575
aI1602
aI1630
aI1658
aI1688
aI1724
aI1758
aI1788
aI1817
aI1846
aI1875
aI1903
aI1930
aI1957
aI1987
aI2013
aI2040
aI2070
aI2099
aI2132
aI2165
aI2198
aI2230
aI2262
aI2296
aI2330
aI2366
aI2401
aI2438
aI2474
aI2512
aI2549
aI2588
aI2624
aI2659
aI2696
aI2734
aI2770
aI2805
aI2840
aI2875
aI2912
aI2948
aI2985
aI3022
aI3057
aI3094
aI3130
aI3167
aI3205
aI3242
aI3280
aI3316
aI3354
aI3391
aI3427
aI3465
aI3501
aI3538
aI3574
aI3610
aI3644
aI3681
aI3716
aI3750
aI3787
aI3822
aI3858
aI3892
aI3927
aI3963
aI3997
aI4033
aI4071
aI4105
aI4141
aI4176
aI4213
aI4248
aI4283
aI4320
aI4357
aI4392
aI4427
aI4466
aI4502
aI4538
aI4575
aI4612
aI4649
aI4684
aI4720
aI4756
aI4791
aI4826
aI4863
aI4899
aI4935
aI4971
aI5004
aI5038
aI5073
aI5107
aI5142
aI5175
aI5210
aI5248
aI5286
aI5323
aI5359
aI5396
aI5432
aI5468
aI5506
aI5543
aI5580
aI5618
aI5655
aI5693
aI5731
aI5770
aI5807
aI5846
aI5884
aI5922
aI5961
aI5999
aI6038
aI6075
aI6114
aI6153
aI6192
aI6229
aI6268
aI6306
aI6345
aI6383
aI6422
aI6460
aI6499
aI6538
aI6576
aI6615
aI6654
aI6692
aI6731
aI6769
aI6808
aI6847
aI6886
aI6925
aI6964
aI7003
aI7042
aI7081
aI7120
aI7158
aI7198
aI7236
aI7275
aI7313
aI7352
aI7390
aI7429
aI7469
aI7509
aI7548
aI7587
aI7626
aI7665
aI7703
aI7742
aI7781
aI7820
aI7858
aI7897
aI7935
aI7974
aI8013
aI8052
aI8091
aI8131
aI8171
aI8210
aI8248
aI8288
aI8327
aI8366
aI8405
aI8445
aI8484
aI8523
aI8562
aI8602
aI8641
aI8680
aI8719
aI8757
aI8796
aI8835
aI8874
aI8912
aI8951
aI8990
aI9029
aI9067
aI9106
aI9145
aI9184
aI9224
aI9263
aI9302
aI9340
aI9379
aI9418
aI9457
aI9496
aI9535
aI9574
aI9613
aI9652
aI9691
aI9730
aI9769
aI9807
aI9846
aI9885
aI9923
aI9962
aI10001
aI10039
aI10078
aI10116
aI10154
aI10193
aI10232
aI10270
aI10308
aI10347
aI10385
aI10425
aI10464
aI10502
aI10541
aI10580
aI10619
aI10658
aI10697
aI10736
aI10775
aI10814
aI10852
aI10891
aI10930
aI10969
aI11009
aI11048
aI11088
aI11126
aI11165
aI11204
aI11244
aI11282
aI11321
aI11361
aI11400
aI11439
aI11478
aI11517
aI11555
aI11594
aI11633
aI11672
aI11711
aI11750
aI11788
aI11827
aI11866
aI11904
aI11943
aI11982
aI12021
aI12059
aI12098
aI12137
aI12176
aI12214
aI12253
aI12291
aI12329
aI12368
aI12407
aI12445
aI12484
aI12523
aI12561
aI12600
aI12638
aI12677
aI12715
aI12753
aI12792
aI12831
aI12870
aI12909
aI12948
aI12987
aI13025
aI13065
aI13103
aI13141
aI13179
aI13217
aI13257
aI13296
aI13335
aI13374
aI13412
aI13451
aI13489
aI13528
aI13567
aI13606
aI13645
aI13684
aI13723
aI13761
aI13800
aI13839
aI13878
aI13917
aI13956
aI13996
aI14035
aI14074
aI14112
aI14152
aI14190
aI14229
aI14269
aI14308
aI14348
aI14387
aI14426
aI14465
aI14504
aI14544
aI14583
aI14623
aI14662
aI14702
aI14741
aI14781
aI14820
aI14859
aI14898
aI14938
aI14978
aI15017
aI15056
aI15095
aI15133
aI15173
aI15211
aI15250
aI15289
aI15328
aI15367
as.