(dp0
S't_log'
p1
(lp2
I60000
aI70000
aI80000
aI90000
aI100000
aI110000
aI120000
aI130000
aI140000
aI150000
aI160000
aI170000
aI180000
aI190000
aI200000
aI210000
aI220000
aI230000
aI240000
aI250000
aI260000
aI270000
aI280000
aI290000
aI300000
aI310000
aI320000
aI330000
aI340000
aI350000
aI360000
aI370000
aI380000
aI390000
aI400000
aI410000
aI420000
aI430000
aI440000
aI450000
aI460000
aI470000
aI480000
aI490000
aI500000
aI510000
aI520000
aI530000
aI540000
aI550000
aI560000
aI570000
aI580000
aI590000
aI600000
aI610000
aI620000
aI630000
aI640000
aI650000
aI660000
aI670000
aI680000
aI690000
aI700000
aI710000
aI720000
aI730000
aI740000
aI750000
aI760000
aI770000
aI780000
aI790000
aI800000
asS'mean_reward_log'
p3
(lp4
cnumpy.core.multiarray
scalar
p5
(cnumpy
dtype
p6
(S'f8'
p7
I0
I1
tp8
Rp9
(I3
S'<'
p10
NNNI-1
I-1
I0
tp11
bS'q=\n\xd7\xa3\xb04\xc0'
p12
tp13
Rp14
ag5
(g9
S')\\\x8f\xc2\xf5\xa84\xc0'
p15
tp16
Rp17
ag5
(g9
S'\x8f\xc2\xf5(\\\x8f4\xc0'
p18
tp19
Rp20
ag5
(g9
S'H\xe1z\x14\xae\x874\xc0'
p21
tp22
Rp23
ag5
(g9
S'H\xe1z\x14\xae\x874\xc0'
p24
tp25
Rp26
ag5
(g9
S'\\\x8f\xc2\xf5(\x9c4\xc0'
p27
tp28
Rp29
ag5
(g9
S'\x00\x00\x00\x00\x00\x804\xc0'
p30
tp31
Rp32
ag5
(g9
S'\xb8\x1e\x85\xebQx4\xc0'
p33
tp34
Rp35
ag5
(g9
S'\x14\xaeG\xe1zT4\xc0'
p36
tp37
Rp38
ag5
(g9
S'=\n\xd7\xa3p=4\xc0'
p39
tp40
Rp41
ag5
(g9
S'\xb8\x1e\x85\xebQ84\xc0'
p42
tp43
Rp44
ag5
(g9
S'\xa4p=\n\xd7#4\xc0'
p45
tp46
Rp47
ag5
(g9
S'\xaeG\xe1z\x14.4\xc0'
p48
tp49
Rp50
ag5
(g9
S'\xe1z\x14\xaeG!4\xc0'
p51
tp52
Rp53
ag5
(g9
S'\xecQ\xb8\x1e\x85+4\xc0'
p54
tp55
Rp56
ag5
(g9
S'\n\xd7\xa3p=\n4\xc0'
p57
tp58
Rp59
ag5
(g9
S'\xb8\x1e\x85\xebQ\xf83\xc0'
p60
tp61
Rp62
ag5
(g9
S'\xa4p=\n\xd7\xe33\xc0'
p63
tp64
Rp65
ag5
(g9
S')\\\x8f\xc2\xf5\xe83\xc0'
p66
tp67
Rp68
ag5
(g9
S'\xaeG\xe1z\x14\xee3\xc0'
p69
tp70
Rp71
ag5
(g9
S'\xaeG\xe1z\x14\xee3\xc0'
p72
tp73
Rp74
ag5
(g9
S'\xf6(\\\x8f\xc2\xf53\xc0'
p75
tp76
Rp77
ag5
(g9
S'\xe1z\x14\xaeG\xe13\xc0'
p78
tp79
Rp80
ag5
(g9
S')\\\x8f\xc2\xf5\xa83\xc0'
p81
tp82
Rp83
ag5
(g9
S'H\xe1z\x14\xaeG3\xc0'
p84
tp85
Rp86
ag5
(g9
S'=\n\xd7\xa3p\xfd2\xc0'
p87
tp88
Rp89
ag5
(g9
S'\xe1z\x14\xaeG\xe12\xc0'
p90
tp91
Rp92
ag5
(g9
S'q=\n\xd7\xa3\xb02\xc0'
p93
tp94
Rp95
ag5
(g9
S'\x00\x00\x00\x00\x00\x003\xc0'
p96
tp97
Rp98
ag5
(g9
S'\x8f\xc2\xf5(\\\x0f3\xc0'
p99
tp100
Rp101
ag5
(g9
S'\xc3\xf5(\\\x8f\x023\xc0'
p102
tp103
Rp104
ag5
(g9
S'\xc3\xf5(\\\x8fB3\xc0'
p105
tp106
Rp107
ag5
(g9
S'fffff&3\xc0'
p108
tp109
Rp110
ag5
(g9
S'\xaeG\xe1z\x14\xee2\xc0'
p111
tp112
Rp113
ag5
(g9
S'\x1f\x85\xebQ\xb8\xde2\xc0'
p114
tp115
Rp116
ag5
(g9
S'H\xe1z\x14\xae\xc72\xc0'
p117
tp118
Rp119
ag5
(g9
S'\xd7\xa3p=\n\xd72\xc0'
p120
tp121
Rp122
ag5
(g9
S'q=\n\xd7\xa3\xf02\xc0'
p123
tp124
Rp125
ag5
(g9
S'\x00\x00\x00\x00\x00\x003\xc0'
p126
tp127
Rp128
ag5
(g9
S'\xc3\xf5(\\\x8f\x023\xc0'
p129
tp130
Rp131
ag5
(g9
S'\xf6(\\\x8f\xc2\xf52\xc0'
p132
tp133
Rp134
ag5
(g9
S'\xf6(\\\x8f\xc2\xf52\xc0'
p135
tp136
Rp137
ag5
(g9
S'fffff\xe62\xc0'
p138
tp139
Rp140
ag5
(g9
S'\xecQ\xb8\x1e\x85\xeb2\xc0'
p141
tp142
Rp143
ag5
(g9
S')\\\x8f\xc2\xf5\xe82\xc0'
p144
tp145
Rp146
ag5
(g9
S'\xf6(\\\x8f\xc2\xf52\xc0'
p147
tp148
Rp149
ag5
(g9
S'=\n\xd7\xa3p\xfd2\xc0'
p150
tp151
Rp152
ag5
(g9
S'\x8f\xc2\xf5(\\\x0f3\xc0'
p153
tp154
Rp155
ag5
(g9
S'\xaeG\xe1z\x14.3\xc0'
p156
tp157
Rp158
ag5
(g9
S'33333s3\xc0'
p159
tp160
Rp161
ag5
(g9
S'\xf6(\\\x8f\xc2u3\xc0'
p162
tp163
Rp164
ag5
(g9
S'\x1f\x85\xebQ\xb8\x9e3\xc0'
p165
tp166
Rp167
ag5
(g9
S'\x85\xebQ\xb8\x1e\x054\xc0'
p168
tp169
Rp170
ag5
(g9
S'\x9a\x99\x99\x99\x99Y4\xc0'
p171
tp172
Rp173
ag5
(g9
S'\x14\xaeG\xe1zT4\xc0'
p174
tp175
Rp176
ag5
(g9
S'R\xb8\x1e\x85\xeb\x114\xc0'
p177
tp178
Rp179
ag5
(g9
S'\xaeG\xe1z\x14\xee3\xc0'
p180
tp181
Rp182
ag5
(g9
S'{\x14\xaeG\xe1\xfa3\xc0'
p183
tp184
Rp185
ag5
(g9
S'\x00\x00\x00\x00\x00\x004\xc0'
p186
tp187
Rp188
ag5
(g9
S'\x9a\x99\x99\x99\x99\xd93\xc0'
p189
tp190
Rp191
ag5
(g9
S'\\\x8f\xc2\xf5(\x9c3\xc0'
p192
tp193
Rp194
ag5
(g9
S'\xb8\x1e\x85\xebQx3\xc0'
p195
tp196
Rp197
ag5
(g9
S'\x00\x00\x00\x00\x00@3\xc0'
p198
tp199
Rp200
ag5
(g9
S'H\xe1z\x14\xaeG3\xc0'
p201
tp202
Rp203
ag5
(g9
S'\xb8\x1e\x85\xebQx3\xc0'
p204
tp205
Rp206
ag5
(g9
S'\xd7\xa3p=\n\x973\xc0'
p207
tp208
Rp209
ag5
(g9
S'\xaeG\xe1z\x14\xae3\xc0'
p210
tp211
Rp212
ag5
(g9
S'\x8f\xc2\xf5(\\\xcf3\xc0'
p213
tp214
Rp215
ag5
(g9
S'\xe1z\x14\xaeG\xe13\xc0'
p216
tp217
Rp218
ag5
(g9
S'\\\x8f\xc2\xf5(\xdc3\xc0'
p219
tp220
Rp221
ag5
(g9
S'\xd7\xa3p=\n\xd73\xc0'
p222
tp223
Rp224
ag5
(g9
S'\xa4p=\n\xd7\xe33\xc0'
p225
tp226
Rp227
ag5
(g9
S'\x14\xaeG\xe1z\x144\xc0'
p228
tp229
Rp230
ag5
(g9
S'{\x14\xaeG\xe1:4\xc0'
p231
tp232
Rp233
ag5
(g9
S'\xaeG\xe1z\x14n4\xc0'
p234
tp235
Rp236
asS'learning_rate_log'
p237
(lp238
F0.001
aF0.001
aF0.001
aF0.001
aF0.001
aF0.001
aF0.001
aF0.001
aF0.001
aF0.001
aF0.001
aF0.001
aF0.001
aF0.001
aF0.001
aF0.001
aF0.001
aF0.001
aF0.001
aF0.001
aF0.001
aF0.001
aF0.001
aF0.001
aF0.001
aF0.001
aF0.001
aF0.001
aF0.001
aF0.001
aF0.001
aF0.001
aF0.001
aF0.001
aF0.001
aF0.001
aF0.001
aF0.001
aF0.001
aF0.001
aF0.001
aF0.001
aF0.001
aF0.001
aF0.001
aF0.001
aF0.001
aF0.001
aF0.001
aF0.001
aF0.001
aF0.001
aF0.001
aF0.001
aF0.001
aF0.001
aF0.001
aF0.001
aF0.001
aF0.001
aF0.001
aF0.001
aF0.001
aF0.001
aF0.001
aF0.001
aF0.001
aF0.001
aF0.001
aF0.001
aF0.001
aF0.001
aF0.001
aF0.001
aF0.001
asS'exploration_log'
p239
(lp240
F0.194
aF0.193
aF0.192
aF0.191
aF0.19
aF0.189
aF0.188
aF0.187
aF0.186
aF0.185
aF0.184
aF0.183
aF0.18200000000000002
aF0.181
aF0.18
aF0.17900000000000002
aF0.17800000000000002
aF0.17700000000000002
aF0.17600000000000002
aF0.17500000000000002
aF0.17400000000000002
aF0.17300000000000001
aF0.17200000000000001
aF0.171
aF0.17
aF0.169
aF0.168
aF0.167
aF0.166
aF0.165
aF0.164
aF0.163
aF0.162
aF0.161
aF0.16
aF0.159
aF0.158
aF0.157
aF0.156
aF0.155
aF0.154
aF0.15300000000000002
aF0.15200000000000002
aF0.15100000000000002
aF0.15000000000000002
aF0.14900000000000002
aF0.14800000000000002
aF0.14700000000000002
aF0.14600000000000002
aF0.14500000000000002
aF0.14400000000000002
aF0.14300000000000002
aF0.14200000000000002
aF0.14100000000000001
aF0.14
aF0.139
aF0.138
aF0.137
aF0.136
aF0.135
aF0.134
aF0.133
aF0.132
aF0.131
aF0.13
aF0.129
aF0.128
aF0.127
aF0.126
aF0.125
aF0.124
aF0.123
aF0.122
aF0.121
aF0.12
asS'best_mean_log'
p241
(lp242
g5
(g9
S'\x00\x00\x00\x00\x00\x804\xc0'
p243
tp244
Rp245
ag245
ag245
ag245
ag5
(g9
S'=\n\xd7\xa3p}4\xc0'
p246
tp247
Rp248
ag248
ag248
ag5
(g9
S'\xf6(\\\x8f\xc2u4\xc0'
p249
tp250
Rp251
ag5
(g9
S'\x14\xaeG\xe1zT4\xc0'
p252
tp253
Rp254
ag5
(g9
S'{\x14\xaeG\xe1:4\xc0'
p255
tp256
Rp257
ag5
(g9
S'\xecQ\xb8\x1e\x85+4\xc0'
p258
tp259
Rp260
ag5
(g9
S'\\\x8f\xc2\xf5(\x1c4\xc0'
p261
tp262
Rp263
ag263
ag5
(g9
S'\xd7\xa3p=\n\x174\xc0'
p264
tp265
Rp266
ag266
ag5
(g9
S'\n\xd7\xa3p=\n4\xc0'
p267
tp268
Rp269
ag5
(g9
S'\xb8\x1e\x85\xebQ\xf83\xc0'
p270
tp271
Rp272
ag5
(g9
S'\\\x8f\xc2\xf5(\xdc3\xc0'
p273
tp274
Rp275
ag5
(g9
S'\x9a\x99\x99\x99\x99\xd93\xc0'
p276
tp277
Rp278
ag278
ag278
ag278
ag278
ag5
(g9
S')\\\x8f\xc2\xf5\xa83\xc0'
p279
tp280
Rp281
ag5
(g9
S'H\xe1z\x14\xaeG3\xc0'
p282
tp283
Rp284
ag5
(g9
S'=\n\xd7\xa3p\xfd2\xc0'
p285
tp286
Rp287
ag5
(g9
S'\xd7\xa3p=\n\xd72\xc0'
p288
tp289
Rp290
ag5
(g9
S'fffff\xa62\xc0'
p291
tp292
Rp293
ag293
ag293
ag293
ag293
ag293
ag293
ag293
ag293
ag293
ag293
ag293
ag293
ag293
ag293
ag293
ag293
ag293
ag293
ag293
ag293
ag293
ag293
ag293
ag293
ag293
ag293
ag293
ag293
ag293
ag293
ag293
ag293
ag293
ag293
ag293
ag293
ag293
ag293
ag293
ag293
ag293
ag293
ag293
ag293
ag293
ag293
ag293
asS'episodes_log'
p294
(lp295
I204
aI240
aI275
aI310
aI344
aI379
aI413
aI446
aI479
aI511
aI545
aI578
aI611
aI642
aI675
aI706
aI738
aI770
aI799
aI830
aI859
aI890
aI919
aI946
aI970
aI996
aI1023
aI1048
aI1074
aI1100
aI1128
aI1156
aI1183
aI1208
aI1233
aI1258
aI1285
aI1310
aI1337
aI1362
aI1389
aI1415
aI1443
aI1468
aI1495
aI1520
aI1547
aI1575
aI1602
aI1630
aI1658
aI1688
aI1724
aI1758
aI1788
aI1817
aI1846
aI1875
aI1903
aI1930
aI1957
aI1987
aI2013
aI2040
aI2070
aI2099
aI2132
aI2165
aI2198
aI2230
aI2262
aI2296
aI2330
aI2366
aI2401
as.