(dp0
S't_log'
p1
(lp2
I60000
aI70000
aI80000
aI90000
aI100000
aI110000
aI120000
aI130000
aI140000
aI150000
aI160000
aI170000
aI180000
aI190000
aI200000
asS'mean_reward_log'
p3
(lp4
cnumpy.core.multiarray
scalar
p5
(cnumpy
dtype
p6
(S'f8'
p7
I0
I1
tp8
Rp9
(I3
S'<'
p10
NNNI-1
I-1
I0
tp11
bS'q=\n\xd7\xa3\xb04\xc0'
p12
tp13
Rp14
ag5
(g9
S')\\\x8f\xc2\xf5\xa84\xc0'
p15
tp16
Rp17
ag5
(g9
S'\x8f\xc2\xf5(\\\x8f4\xc0'
p18
tp19
Rp20
ag5
(g9
S'H\xe1z\x14\xae\x874\xc0'
p21
tp22
Rp23
ag5
(g9
S'H\xe1z\x14\xae\x874\xc0'
p24
tp25
Rp26
ag5
(g9
S'\\\x8f\xc2\xf5(\x9c4\xc0'
p27
tp28
Rp29
ag5
(g9
S'\x00\x00\x00\x00\x00\x804\xc0'
p30
tp31
Rp32
ag5
(g9
S'\xb8\x1e\x85\xebQx4\xc0'
p33
tp34
Rp35
ag5
(g9
S'\x14\xaeG\xe1zT4\xc0'
p36
tp37
Rp38
ag5
(g9
S'=\n\xd7\xa3p=4\xc0'
p39
tp40
Rp41
ag5
(g9
S'\xb8\x1e\x85\xebQ84\xc0'
p42
tp43
Rp44
ag5
(g9
S'\xa4p=\n\xd7#4\xc0'
p45
tp46
Rp47
ag5
(g9
S'\xaeG\xe1z\x14.4\xc0'
p48
tp49
Rp50
ag5
(g9
S'\xe1z\x14\xaeG!4\xc0'
p51
tp52
Rp53
ag5
(g9
S'\xecQ\xb8\x1e\x85+4\xc0'
p54
tp55
Rp56
asS'learning_rate_log'
p57
(lp58
F0.001
aF0.001
aF0.001
aF0.001
aF0.001
aF0.001
aF0.001
aF0.001
aF0.001
aF0.001
aF0.001
aF0.001
aF0.001
aF0.001
aF0.001
asS'exploration_log'
p59
(lp60
F0.194
aF0.193
aF0.192
aF0.191
aF0.19
aF0.189
aF0.188
aF0.187
aF0.186
aF0.185
aF0.184
aF0.183
aF0.18200000000000002
aF0.181
aF0.18
asS'best_mean_log'
p61
(lp62
g5
(g9
S'\x00\x00\x00\x00\x00\x804\xc0'
p63
tp64
Rp65
ag65
ag65
ag65
ag5
(g9
S'=\n\xd7\xa3p}4\xc0'
p66
tp67
Rp68
ag68
ag68
ag5
(g9
S'\xf6(\\\x8f\xc2u4\xc0'
p69
tp70
Rp71
ag5
(g9
S'\x14\xaeG\xe1zT4\xc0'
p72
tp73
Rp74
ag5
(g9
S'{\x14\xaeG\xe1:4\xc0'
p75
tp76
Rp77
ag5
(g9
S'\xecQ\xb8\x1e\x85+4\xc0'
p78
tp79
Rp80
ag5
(g9
S'\\\x8f\xc2\xf5(\x1c4\xc0'
p81
tp82
Rp83
ag83
ag5
(g9
S'\xd7\xa3p=\n\x174\xc0'
p84
tp85
Rp86
ag86
asS'episodes_log'
p87
(lp88
I204
aI240
aI275
aI310
aI344
aI379
aI413
aI446
aI479
aI511
aI545
aI578
aI611
aI642
aI675
as.