(dp0
S't_log'
p1
(lp2
I60000
aI70000
aI80000
aI90000
aI100000
aI110000
aI120000
aI130000
aI140000
aI150000
aI160000
aI170000
aI180000
aI190000
aI200000
aI210000
aI220000
aI230000
aI240000
aI250000
aI260000
aI270000
aI280000
aI290000
aI300000
aI310000
aI320000
aI330000
aI340000
aI350000
aI360000
aI370000
aI380000
aI390000
aI400000
aI410000
aI420000
aI430000
aI440000
aI450000
aI460000
aI470000
aI480000
aI490000
aI500000
aI510000
aI520000
aI530000
aI540000
aI550000
aI560000
aI570000
aI580000
aI590000
aI600000
aI610000
aI620000
aI630000
aI640000
aI650000
aI660000
aI670000
aI680000
aI690000
aI700000
aI710000
aI720000
aI730000
aI740000
aI750000
aI760000
aI770000
aI780000
aI790000
aI800000
aI810000
aI820000
aI830000
aI840000
aI850000
aI860000
aI870000
aI880000
aI890000
aI900000
aI910000
aI920000
aI930000
aI940000
aI950000
aI960000
aI970000
aI980000
aI990000
aI1000000
asS'mean_reward_log'
p3
(lp4
cnumpy.core.multiarray
scalar
p5
(cnumpy
dtype
p6
(S'f8'
p7
I0
I1
tp8
Rp9
(I3
S'<'
p10
NNNI-1
I-1
I0
tp11
bS'\xaeG\xe1z\x14\xae4\xc0'
p12
tp13
Rp14
ag5
(g9
S'\xecQ\xb8\x1e\x85\xab4\xc0'
p15
tp16
Rp17
ag5
(g9
S'\xecQ\xb8\x1e\x85\xab4\xc0'
p18
tp19
Rp20
ag5
(g9
S'\\\x8f\xc2\xf5(\x9c4\xc0'
p21
tp22
Rp23
ag5
(g9
S'\n\xd7\xa3p=\x8a4\xc0'
p24
tp25
Rp26
ag5
(g9
S'ffffff4\xc0'
p27
tp28
Rp29
ag5
(g9
S'\xa4p=\n\xd7c4\xc0'
p30
tp31
Rp32
ag5
(g9
S'\x8f\xc2\xf5(\\O4\xc0'
p33
tp34
Rp35
ag5
(g9
S'\xf6(\\\x8f\xc2u4\xc0'
p36
tp37
Rp38
ag5
(g9
S'q=\n\xd7\xa3p4\xc0'
p39
tp40
Rp41
ag5
(g9
S'H\xe1z\x14\xae\x874\xc0'
p42
tp43
Rp44
ag5
(g9
S')\\\x8f\xc2\xf5h4\xc0'
p45
tp46
Rp47
ag5
(g9
S'\xf6(\\\x8f\xc2u4\xc0'
p48
tp49
Rp50
ag5
(g9
S'33333s4\xc0'
p51
tp52
Rp53
ag5
(g9
S'\xf6(\\\x8f\xc2u4\xc0'
p54
tp55
Rp56
ag5
(g9
S'\xd7\xa3p=\nW4\xc0'
p57
tp58
Rp59
ag5
(g9
S'\x9a\x99\x99\x99\x99Y4\xc0'
p60
tp61
Rp62
ag5
(g9
S'R\xb8\x1e\x85\xebQ4\xc0'
p63
tp64
Rp65
ag5
(g9
S'\xaeG\xe1z\x14n4\xc0'
p66
tp67
Rp68
ag5
(g9
S'\n\xd7\xa3p=J4\xc0'
p69
tp70
Rp71
ag5
(g9
S'\n\xd7\xa3p=J4\xc0'
p72
tp73
Rp74
ag5
(g9
S'H\xe1z\x14\xaeG4\xc0'
p75
tp76
Rp77
ag5
(g9
S'\xa4p=\n\xd7c4\xc0'
p78
tp79
Rp80
ag5
(g9
S'\xaeG\xe1z\x14n4\xc0'
p81
tp82
Rp83
ag5
(g9
S'\x1f\x85\xebQ\xb8^4\xc0'
p84
tp85
Rp86
ag5
(g9
S'\n\xd7\xa3p=J4\xc0'
p87
tp88
Rp89
ag5
(g9
S'=\n\xd7\xa3p=4\xc0'
p90
tp91
Rp92
ag5
(g9
S'\xe1z\x14\xaeG!4\xc0'
p93
tp94
Rp95
ag5
(g9
S'H\xe1z\x14\xae\x074\xc0'
p96
tp97
Rp98
ag5
(g9
S'\\\x8f\xc2\xf5(\x1c4\xc0'
p99
tp100
Rp101
ag5
(g9
S'\xd7\xa3p=\n\x174\xc0'
p102
tp103
Rp104
ag5
(g9
S'\xa4p=\n\xd7#4\xc0'
p105
tp106
Rp107
ag5
(g9
S'{\x14\xaeG\xe1:4\xc0'
p108
tp109
Rp110
ag5
(g9
S'3333334\xc0'
p111
tp112
Rp113
ag5
(g9
S'\xe1z\x14\xaeG!4\xc0'
p114
tp115
Rp116
ag5
(g9
S'\xcd\xcc\xcc\xcc\xcc\x0c4\xc0'
p117
tp118
Rp119
ag5
(g9
S'\x1f\x85\xebQ\xb8\x1e4\xc0'
p120
tp121
Rp122
ag5
(g9
S'q=\n\xd7\xa304\xc0'
p123
tp124
Rp125
ag5
(g9
S'\xb8\x1e\x85\xebQ84\xc0'
p126
tp127
Rp128
ag5
(g9
S'\xc3\xf5(\\\x8fB4\xc0'
p129
tp130
Rp131
ag5
(g9
S'=\n\xd7\xa3p=4\xc0'
p132
tp133
Rp134
ag5
(g9
S'q=\n\xd7\xa304\xc0'
p135
tp136
Rp137
ag5
(g9
S'\xecQ\xb8\x1e\x85+4\xc0'
p138
tp139
Rp140
ag5
(g9
S'\xa4p=\n\xd7#4\xc0'
p141
tp142
Rp143
ag5
(g9
S'\x9a\x99\x99\x99\x99\x194\xc0'
p144
tp145
Rp146
ag5
(g9
S'\x00\x00\x00\x00\x00\x004\xc0'
p147
tp148
Rp149
ag5
(g9
S'\xecQ\xb8\x1e\x85\xeb3\xc0'
p150
tp151
Rp152
ag5
(g9
S'=\n\xd7\xa3p\xbd3\xc0'
p153
tp154
Rp155
ag5
(g9
S'\x8f\xc2\xf5(\\\xcf3\xc0'
p156
tp157
Rp158
ag5
(g9
S'R\xb8\x1e\x85\xeb\xd13\xc0'
p159
tp160
Rp161
ag5
(g9
S')\\\x8f\xc2\xf5\xe83\xc0'
p162
tp163
Rp164
ag5
(g9
S'\xf6(\\\x8f\xc2\xf53\xc0'
p165
tp166
Rp167
ag5
(g9
S'fffff\xe63\xc0'
p168
tp169
Rp170
ag5
(g9
S'fffff\xe63\xc0'
p171
tp172
Rp173
ag5
(g9
S'\xf6(\\\x8f\xc2\xf53\xc0'
p174
tp175
Rp176
ag5
(g9
S'\x1f\x85\xebQ\xb8\x1e4\xc0'
p177
tp178
Rp179
ag5
(g9
S'\\\x8f\xc2\xf5(\x1c4\xc0'
p180
tp181
Rp182
ag5
(g9
S'\n\xd7\xa3p=\n4\xc0'
p183
tp184
Rp185
ag5
(g9
S'R\xb8\x1e\x85\xeb\xd13\xc0'
p186
tp187
Rp188
ag5
(g9
S'\xcd\xcc\xcc\xcc\xcc\xcc3\xc0'
p189
tp190
Rp191
ag5
(g9
S'\x14\xaeG\xe1z\xd43\xc0'
p192
tp193
Rp194
ag5
(g9
S'\xe1z\x14\xaeG\xe13\xc0'
p195
tp196
Rp197
ag5
(g9
S'=\n\xd7\xa3p\xfd3\xc0'
p198
tp199
Rp200
ag5
(g9
S'\xd7\xa3p=\n\x174\xc0'
p201
tp202
Rp203
ag5
(g9
S'\xecQ\xb8\x1e\x85+4\xc0'
p204
tp205
Rp206
ag5
(g9
S'\xa4p=\n\xd7#4\xc0'
p207
tp208
Rp209
ag5
(g9
S'33333\xf33\xc0'
p210
tp211
Rp212
ag5
(g9
S'\xe1z\x14\xaeG\xe13\xc0'
p213
tp214
Rp215
ag5
(g9
S'\xc3\xf5(\\\x8f\xc23\xc0'
p216
tp217
Rp218
ag5
(g9
S'\xd7\xa3p=\n\xd73\xc0'
p219
tp220
Rp221
ag5
(g9
S'\x8f\xc2\xf5(\\\xcf3\xc0'
p222
tp223
Rp224
ag5
(g9
S'\x85\xebQ\xb8\x1e\xc53\xc0'
p225
tp226
Rp227
ag5
(g9
S'q=\n\xd7\xa3\xb03\xc0'
p228
tp229
Rp230
ag5
(g9
S'q=\n\xd7\xa3\xb03\xc0'
p231
tp232
Rp233
ag5
(g9
S'H\xe1z\x14\xae\xc73\xc0'
p234
tp235
Rp236
ag5
(g9
S'fffff\xe63\xc0'
p237
tp238
Rp239
ag5
(g9
S'fffff\xe63\xc0'
p240
tp241
Rp242
ag5
(g9
S'\x85\xebQ\xb8\x1e\xc53\xc0'
p243
tp244
Rp245
ag5
(g9
S'R\xb8\x1e\x85\xeb\xd13\xc0'
p246
tp247
Rp248
ag5
(g9
S'{\x14\xaeG\xe1\xba3\xc0'
p249
tp250
Rp251
ag5
(g9
S'\x1f\x85\xebQ\xb8\x9e3\xc0'
p252
tp253
Rp254
ag5
(g9
S'\xc3\xf5(\\\x8f\xc23\xc0'
p255
tp256
Rp257
ag5
(g9
S'H\xe1z\x14\xae\xc73\xc0'
p258
tp259
Rp260
ag5
(g9
S'\xa4p=\n\xd7\xe33\xc0'
p261
tp262
Rp263
ag5
(g9
S'=\n\xd7\xa3p\xfd3\xc0'
p264
tp265
Rp266
ag5
(g9
S'\xaeG\xe1z\x14\xee3\xc0'
p267
tp268
Rp269
ag5
(g9
S'\xd7\xa3p=\n\xd73\xc0'
p270
tp271
Rp272
ag5
(g9
S'q=\n\xd7\xa3\xb03\xc0'
p273
tp274
Rp275
ag5
(g9
S'\x9a\x99\x99\x99\x99\x993\xc0'
p276
tp277
Rp278
ag5
(g9
S'\xcd\xcc\xcc\xcc\xcc\x8c3\xc0'
p279
tp280
Rp281
ag5
(g9
S'\xaeG\xe1z\x14n3\xc0'
p282
tp283
Rp284
ag5
(g9
S'\x00\x00\x00\x00\x00\x803\xc0'
p285
tp286
Rp287
ag5
(g9
S'\xa4p=\n\xd7c3\xc0'
p288
tp289
Rp290
ag5
(g9
S'\xb8\x1e\x85\xebQ83\xc0'
p291
tp292
Rp293
ag5
(g9
S'\x9a\x99\x99\x99\x99Y3\xc0'
p294
tp295
Rp296
asS'learning_rate_log'
p297
(lp298
F1e-05
aF1e-05
aF1e-05
aF1e-05
aF1e-05
aF1e-05
aF1e-05
aF1e-05
aF1e-05
aF1e-05
aF1e-05
aF1e-05
aF1e-05
aF1e-05
aF1e-05
aF1e-05
aF1e-05
aF1e-05
aF1e-05
aF1e-05
aF1e-05
aF1e-05
aF1e-05
aF1e-05
aF1e-05
aF1e-05
aF1e-05
aF1e-05
aF1e-05
aF1e-05
aF1e-05
aF1e-05
aF1e-05
aF1e-05
aF1e-05
aF1e-05
aF1e-05
aF1e-05
aF1e-05
aF1e-05
aF1e-05
aF1e-05
aF1e-05
aF1e-05
aF1e-05
aF1e-05
aF1e-05
aF1e-05
aF1e-05
aF1e-05
aF1e-05
aF1e-05
aF1e-05
aF1e-05
aF1e-05
aF1e-05
aF1e-05
aF1e-05
aF1e-05
aF1e-05
aF1e-05
aF1e-05
aF1e-05
aF1e-05
aF1e-05
aF1e-05
aF1e-05
aF1e-05
aF1e-05
aF1e-05
aF1e-05
aF1e-05
aF1e-05
aF1e-05
aF1e-05
aF1e-05
aF1e-05
aF1e-05
aF1e-05
aF1e-05
aF1e-05
aF1e-05
aF1e-05
aF1e-05
aF1e-05
aF1e-05
aF1e-05
aF1e-05
aF1e-05
aF1e-05
aF1e-05
aF1e-05
aF1e-05
aF1e-05
aF1e-05
asS'exploration_log'
p299
(lp300
F0.194
aF0.193
aF0.192
aF0.191
aF0.19
aF0.189
aF0.188
aF0.187
aF0.186
aF0.185
aF0.184
aF0.183
aF0.18200000000000002
aF0.181
aF0.18
aF0.17900000000000002
aF0.17800000000000002
aF0.17700000000000002
aF0.17600000000000002
aF0.17500000000000002
aF0.17400000000000002
aF0.17300000000000001
aF0.17200000000000001
aF0.171
aF0.17
aF0.169
aF0.168
aF0.167
aF0.166
aF0.165
aF0.164
aF0.163
aF0.162
aF0.161
aF0.16
aF0.159
aF0.158
aF0.157
aF0.156
aF0.155
aF0.154
aF0.15300000000000002
aF0.15200000000000002
aF0.15100000000000002
aF0.15000000000000002
aF0.14900000000000002
aF0.14800000000000002
aF0.14700000000000002
aF0.14600000000000002
aF0.14500000000000002
aF0.14400000000000002
aF0.14300000000000002
aF0.14200000000000002
aF0.14100000000000001
aF0.14
aF0.139
aF0.138
aF0.137
aF0.136
aF0.135
aF0.134
aF0.133
aF0.132
aF0.131
aF0.13
aF0.129
aF0.128
aF0.127
aF0.126
aF0.125
aF0.124
aF0.123
aF0.122
aF0.121
aF0.12
aF0.119
aF0.11800000000000001
aF0.117
aF0.116
aF0.115
aF0.114
aF0.113
aF0.112
aF0.111
aF0.11
aF0.109
aF0.108
aF0.107
aF0.10600000000000001
aF0.10500000000000001
aF0.10400000000000001
aF0.10300000000000001
aF0.10200000000000001
aF0.101
aF0.1
asS'best_mean_log'
p301
(lp302
g5
(g9
S'\x00\x00\x00\x00\x00\x804\xc0'
p303
tp304
Rp305
ag305
ag305
ag305
ag305
ag5
(g9
S'ffffff4\xc0'
p306
tp307
Rp308
ag5
(g9
S'\xa4p=\n\xd7c4\xc0'
p309
tp310
Rp311
ag5
(g9
S'\xcd\xcc\xcc\xcc\xccL4\xc0'
p312
tp313
Rp314
ag5
(g9
S'\n\xd7\xa3p=J4\xc0'
p315
tp316
Rp317
ag317
ag317
ag317
ag317
ag317
ag317
ag317
ag317
ag317
ag317
ag5
(g9
S'\x85\xebQ\xb8\x1eE4\xc0'
p318
tp319
Rp320
ag320
ag320
ag5
(g9
S'\xc3\xf5(\\\x8fB4\xc0'
p321
tp322
Rp323
ag323
ag323
ag323
ag5
(g9
S'\xb8\x1e\x85\xebQ84\xc0'
p324
tp325
Rp326
ag5
(g9
S'\xe1z\x14\xaeG!4\xc0'
p327
tp328
Rp329
ag5
(g9
S'H\xe1z\x14\xae\x074\xc0'
p330
tp331
Rp332
ag5
(g9
S'\xc3\xf5(\\\x8f\x024\xc0'
p333
tp334
Rp335
ag335
ag335
ag335
ag335
ag335
ag335
ag335
ag335
ag335
ag335
ag335
ag335
ag335
ag335
ag335
ag5
(g9
S'\xf6(\\\x8f\xc2\xf53\xc0'
p336
tp337
Rp338
ag5
(g9
S'\xecQ\xb8\x1e\x85\xeb3\xc0'
p339
tp340
Rp341
ag5
(g9
S'\xb8\x1e\x85\xebQ\xb83\xc0'
p342
tp343
Rp344
ag344
ag344
ag344
ag344
ag344
ag344
ag344
ag344
ag344
ag344
ag344
ag344
ag344
ag344
ag344
ag344
ag344
ag344
ag344
ag344
ag344
ag5
(g9
S'\xf6(\\\x8f\xc2\xb53\xc0'
p345
tp346
Rp347
ag347
ag5
(g9
S'\xaeG\xe1z\x14\xae3\xc0'
p348
tp349
Rp350
ag350
ag5
(g9
S'\x9a\x99\x99\x99\x99\x993\xc0'
p351
tp352
Rp353
ag353
ag353
ag353
ag353
ag353
ag353
ag5
(g9
S'\xcd\xcc\xcc\xcc\xcc\x8c3\xc0'
p354
tp355
Rp356
ag356
ag356
ag356
ag356
ag356
ag356
ag356
ag356
ag5
(g9
S'\n\xd7\xa3p=\x8a3\xc0'
p357
tp358
Rp359
ag5
(g9
S'\xaeG\xe1z\x14n3\xc0'
p360
tp361
Rp362
ag5
(g9
S'\\\x8f\xc2\xf5(\\3\xc0'
p363
tp364
Rp365
ag365
ag5
(g9
S'\xb8\x1e\x85\xebQ83\xc0'
p366
tp367
Rp368
ag368
asS'episodes_log'
p369
(lp370
I204
aI239
aI272
aI306
aI339
aI371
aI403
aI435
aI470
aI504
aI538
aI569
aI604
aI638
aI670
aI702
aI734
aI766
aI798
aI831
aI862
aI894
aI925
aI957
aI988
aI1019
aI1050
aI1081
aI1111
aI1142
aI1173
aI1203
aI1234
aI1264
aI1294
aI1324
aI1356
aI1386
aI1417
aI1448
aI1477
aI1505
aI1534
aI1565
aI1594
aI1624
aI1653
aI1679
aI1709
aI1739
aI1767
aI1797
aI1825
aI1855
aI1882
aI1912
aI1940
aI1968
aI1996
aI2025
aI2054
aI2082
aI2111
aI2140
aI2170
aI2199
aI2228
aI2255
aI2285
aI2313
aI2341
aI2368
aI2396
aI2425
aI2452
aI2480
aI2507
aI2535
aI2563
aI2590
aI2617
aI2646
aI2673
aI2700
aI2728
aI2755
aI2782
aI2808
aI2835
aI2864
aI2890
aI2917
aI2943
aI2970
aI2997
as.