(dp0
S't_log'
p1
(lp2
I60000
aI70000
aI80000
aI90000
aI100000
aI110000
aI120000
aI130000
aI140000
aI150000
aI160000
aI170000
aI180000
aI190000
aI200000
aI210000
aI220000
aI230000
aI240000
aI250000
aI260000
aI270000
aI280000
aI290000
aI300000
aI310000
aI320000
aI330000
aI340000
aI350000
aI360000
aI370000
aI380000
aI390000
aI400000
aI410000
aI420000
aI430000
aI440000
aI450000
aI460000
aI470000
aI480000
aI490000
aI500000
aI510000
aI520000
aI530000
aI540000
aI550000
aI560000
aI570000
aI580000
aI590000
aI600000
aI610000
aI620000
aI630000
aI640000
aI650000
aI660000
aI670000
aI680000
aI690000
aI700000
aI710000
aI720000
aI730000
aI740000
aI750000
aI760000
aI770000
aI780000
aI790000
aI800000
aI810000
aI820000
aI830000
aI840000
aI850000
aI860000
aI870000
aI880000
aI890000
aI900000
aI910000
aI920000
aI930000
aI940000
aI950000
aI960000
aI970000
aI980000
aI990000
aI1000000
aI1010000
aI1020000
aI1030000
aI1040000
aI1050000
aI1060000
aI1070000
aI1080000
aI1090000
aI1100000
aI1110000
aI1120000
aI1130000
aI1140000
aI1150000
aI1160000
aI1170000
aI1180000
aI1190000
aI1200000
aI1210000
aI1220000
aI1230000
aI1240000
aI1250000
aI1260000
aI1270000
aI1280000
aI1290000
aI1300000
aI1310000
aI1320000
aI1330000
aI1340000
aI1350000
aI1360000
aI1370000
aI1380000
aI1390000
aI1400000
aI1410000
aI1420000
aI1430000
aI1440000
aI1450000
aI1460000
aI1470000
aI1480000
aI1490000
aI1500000
aI1510000
aI1520000
aI1530000
aI1540000
aI1550000
aI1560000
aI1570000
aI1580000
aI1590000
aI1600000
aI1610000
aI1620000
aI1630000
aI1640000
aI1650000
aI1660000
aI1670000
aI1680000
aI1690000
aI1700000
aI1710000
aI1720000
aI1730000
aI1740000
aI1750000
aI1760000
aI1770000
aI1780000
aI1790000
aI1800000
aI1810000
aI1820000
aI1830000
aI1840000
aI1850000
aI1860000
aI1870000
aI1880000
aI1890000
aI1900000
aI1910000
aI1920000
aI1930000
aI1940000
aI1950000
aI1960000
aI1970000
aI1980000
aI1990000
aI2000000
asS'mean_reward_log'
p3
(lp4
cnumpy.core.multiarray
scalar
p5
(cnumpy
dtype
p6
(S'f8'
p7
I0
I1
tp8
Rp9
(I3
S'<'
p10
NNNI-1
I-1
I0
tp11
bS'\x00\x00\x00\x00\x0044\xc0'
p12
tp13
Rp14
ag5
(g9
S'7\xd0i\x03\x9d64\xc0'
p15
tp16
Rp17
ag5
(g9
S'\x8f\xb8#\xee\x88;4\xc0'
p18
tp19
Rp20
ag5
(g9
S'\x00\x00\x00\x00\x00(4\xc0'
p21
tp22
Rp23
ag5
(g9
S'\xecQ\xb8\x1e\x85+4\xc0'
p24
tp25
Rp26
ag5
(g9
S'\xaeG\xe1z\x14.4\xc0'
p27
tp28
Rp29
ag5
(g9
S'\xc3\xf5(\\\x8fB4\xc0'
p30
tp31
Rp32
ag5
(g9
S'\x1f\x85\xebQ\xb8\x1e4\xc0'
p33
tp34
Rp35
ag5
(g9
S'fffff&4\xc0'
p36
tp37
Rp38
ag5
(g9
S'\x9a\x99\x99\x99\x99\x194\xc0'
p39
tp40
Rp41
ag5
(g9
S'\x9a\x99\x99\x99\x99\x194\xc0'
p42
tp43
Rp44
ag5
(g9
S'\\\x8f\xc2\xf5(\x1c4\xc0'
p45
tp46
Rp47
ag5
(g9
S'\x14\xaeG\xe1z\x144\xc0'
p48
tp49
Rp50
ag5
(g9
S'\xcd\xcc\xcc\xcc\xcc\x0c4\xc0'
p51
tp52
Rp53
ag5
(g9
S'H\xe1z\x14\xae\x074\xc0'
p54
tp55
Rp56
ag5
(g9
S'\x00\x00\x00\x00\x00\x004\xc0'
p57
tp58
Rp59
ag5
(g9
S'\x1f\x85\xebQ\xb8\xde3\xc0'
p60
tp61
Rp62
ag5
(g9
S'\x9a\x99\x99\x99\x99\xd93\xc0'
p63
tp64
Rp65
ag5
(g9
S'\x8f\xc2\xf5(\\\xcf3\xc0'
p66
tp67
Rp68
ag5
(g9
S'\xcd\xcc\xcc\xcc\xcc\xcc3\xc0'
p69
tp70
Rp71
ag5
(g9
S'\xf6(\\\x8f\xc2\xb53\xc0'
p72
tp73
Rp74
ag5
(g9
S'fffff\xa63\xc0'
p75
tp76
Rp77
ag5
(g9
S'\x85\xebQ\xb8\x1e\x853\xc0'
p78
tp79
Rp80
ag5
(g9
S'\xaeG\xe1z\x14n3\xc0'
p81
tp82
Rp83
ag5
(g9
S'\xa4p=\n\xd7c3\xc0'
p84
tp85
Rp86
ag5
(g9
S'\xc3\xf5(\\\x8fB3\xc0'
p87
tp88
Rp89
ag5
(g9
S')\\\x8f\xc2\xf5(3\xc0'
p90
tp91
Rp92
ag5
(g9
S'R\xb8\x1e\x85\xeb\x113\xc0'
p93
tp94
Rp95
ag5
(g9
S'\x85\xebQ\xb8\x1e\x053\xc0'
p96
tp97
Rp98
ag5
(g9
S'\xf6(\\\x8f\xc2\xf52\xc0'
p99
tp100
Rp101
ag5
(g9
S'\x14\xaeG\xe1z\xd42\xc0'
p102
tp103
Rp104
ag5
(g9
S'\x8f\xc2\xf5(\\\xcf2\xc0'
p105
tp106
Rp107
ag5
(g9
S'fffff\xa62\xc0'
p108
tp109
Rp110
ag5
(g9
S'\x14\xaeG\xe1z\x942\xc0'
p111
tp112
Rp113
ag5
(g9
S'\n\xd7\xa3p=\x8a2\xc0'
p114
tp115
Rp116
ag5
(g9
S'=\n\xd7\xa3p}2\xc0'
p117
tp118
Rp119
ag5
(g9
S'\xecQ\xb8\x1e\x85k2\xc0'
p120
tp121
Rp122
ag5
(g9
S'\x14\xaeG\xe1zT2\xc0'
p123
tp124
Rp125
ag5
(g9
S'\x14\xaeG\xe1zT2\xc0'
p126
tp127
Rp128
ag5
(g9
S'\n\xd7\xa3p=J2\xc0'
p129
tp130
Rp131
ag5
(g9
S'\x85\xebQ\xb8\x1eE2\xc0'
p132
tp133
Rp134
ag5
(g9
S'\xf6(\\\x8f\xc252\xc0'
p135
tp136
Rp137
ag5
(g9
S'q=\n\xd7\xa302\xc0'
p138
tp139
Rp140
ag5
(g9
S'fffff&2\xc0'
p141
tp142
Rp143
ag5
(g9
S')\\\x8f\xc2\xf5(2\xc0'
p144
tp145
Rp146
ag5
(g9
S'fffff&2\xc0'
p147
tp148
Rp149
ag5
(g9
S'fffff&2\xc0'
p150
tp151
Rp152
ag5
(g9
S'\xecQ\xb8\x1e\x85+2\xc0'
p153
tp154
Rp155
ag5
(g9
S'\x9a\x99\x99\x99\x99\x192\xc0'
p156
tp157
Rp158
ag5
(g9
S'\x85\xebQ\xb8\x1e\x052\xc0'
p159
tp160
Rp161
ag5
(g9
S'=\n\xd7\xa3p\xfd1\xc0'
p162
tp163
Rp164
ag5
(g9
S'\xaeG\xe1z\x14\xee1\xc0'
p165
tp166
Rp167
ag5
(g9
S'\xecQ\xb8\x1e\x85\xeb1\xc0'
p168
tp169
Rp170
ag5
(g9
S'=\n\xd7\xa3p\xbd1\xc0'
p171
tp172
Rp173
ag5
(g9
S'33333\xb31\xc0'
p174
tp175
Rp176
ag5
(g9
S'\x8f\xc2\xf5(\\\x8f1\xc0'
p177
tp178
Rp179
ag5
(g9
S'q=\n\xd7\xa3p1\xc0'
p180
tp181
Rp182
ag5
(g9
S'\n\xd7\xa3p=J1\xc0'
p183
tp184
Rp185
ag5
(g9
S'\xecQ\xb8\x1e\x85+1\xc0'
p186
tp187
Rp188
ag5
(g9
S'\x9a\x99\x99\x99\x99\x191\xc0'
p189
tp190
Rp191
ag5
(g9
S'=\n\xd7\xa3p\xfd0\xc0'
p192
tp193
Rp194
ag5
(g9
S'q=\n\xd7\xa3\xf00\xc0'
p195
tp196
Rp197
ag5
(g9
S'\\\x8f\xc2\xf5(\xdc0\xc0'
p198
tp199
Rp200
ag5
(g9
S'\x8f\xc2\xf5(\\\x8f0\xc0'
p201
tp202
Rp203
ag5
(g9
S'\xaeG\xe1z\x14n0\xc0'
p204
tp205
Rp206
ag5
(g9
S'\x00\x00\x00\x00\x00@0\xc0'
p207
tp208
Rp209
ag5
(g9
S'\x00\x00\x00\x00\x00\x000\xc0'
p210
tp211
Rp212
ag5
(g9
S'\xb8\x1e\x85\xebQ\xb8/\xc0'
p213
tp214
Rp215
ag5
(g9
S'\xa4p=\n\xd7\xa3/\xc0'
p216
tp217
Rp218
ag5
(g9
S'\xcd\xcc\xcc\xcc\xccL/\xc0'
p219
tp220
Rp221
ag5
(g9
S'333333/\xc0'
p222
tp223
Rp224
ag5
(g9
S'fffff\xe6.\xc0'
p225
tp226
Rp227
ag5
(g9
S'q=\n\xd7\xa3p.\xc0'
p228
tp229
Rp230
ag5
(g9
S'\xcd\xcc\xcc\xcc\xccL.\xc0'
p231
tp232
Rp233
ag5
(g9
S'\xb8\x1e\x85\xebQ\xb8-\xc0'
p234
tp235
Rp236
ag5
(g9
S'\xecQ\xb8\x1e\x85k-\xc0'
p237
tp238
Rp239
ag5
(g9
S'q=\n\xd7\xa3\xf0,\xc0'
p240
tp241
Rp242
ag5
(g9
S'\x8f\xc2\xf5(\\\x8f,\xc0'
p243
tp244
Rp245
ag5
(g9
S'\x9a\x99\x99\x99\x99\x19,\xc0'
p246
tp247
Rp248
ag5
(g9
S'\x14\xaeG\xe1z\x94+\xc0'
p249
tp250
Rp251
ag5
(g9
S'\x14\xaeG\xe1z\x14+\xc0'
p252
tp253
Rp254
ag5
(g9
S'{\x14\xaeG\xe1z*\xc0'
p255
tp256
Rp257
ag5
(g9
S'\xd7\xa3p=\n\xd7)\xc0'
p258
tp259
Rp260
ag5
(g9
S'\xe1z\x14\xaeGa)\xc0'
p261
tp262
Rp263
ag5
(g9
S'\xd7\xa3p=\n\xd7(\xc0'
p264
tp265
Rp266
ag5
(g9
S'\xd7\xa3p=\nW(\xc0'
p267
tp268
Rp269
ag5
(g9
S'q=\n\xd7\xa3\xf0&\xc0'
p270
tp271
Rp272
ag5
(g9
S'ffffff&\xc0'
p273
tp274
Rp275
ag5
(g9
S'33333\xb3%\xc0'
p276
tp277
Rp278
ag5
(g9
S'\x85\xebQ\xb8\x1e\x85$\xc0'
p279
tp280
Rp281
ag5
(g9
S'\xa4p=\n\xd7\xa3#\xc0'
p282
tp283
Rp284
ag5
(g9
S'R\xb8\x1e\x85\xeb\xd1"\xc0'
p285
tp286
Rp287
ag5
(g9
S'\x1f\x85\xebQ\xb8\x1e"\xc0'
p288
tp289
Rp290
ag5
(g9
S'333333!\xc0'
p291
tp292
Rp293
ag5
(g9
S'\x8f\xc2\xf5(\\\x8f\x1f\xc0'
p294
tp295
Rp296
ag5
(g9
S')\\\x8f\xc2\xf5(\x1c\xc0'
p297
tp298
Rp299
ag5
(g9
S'333333\x19\xc0'
p300
tp301
Rp302
ag5
(g9
S'\x1f\x85\xebQ\xb8\x1e\x15\xc0'
p303
tp304
Rp305
ag5
(g9
S'ffffff\x12\xc0'
p306
tp307
Rp308
ag5
(g9
S'\xa4p=\n\xd7\xa3\x0e\xc0'
p309
tp310
Rp311
ag5
(g9
S'\x8f\xc2\xf5(\\\x8f\x08\xc0'
p312
tp313
Rp314
ag5
(g9
S'\xa4p=\n\xd7\xa3\x04\xc0'
p315
tp316
Rp317
ag5
(g9
S'\xf6(\\\x8f\xc2\xf5\xfc\xbf'
p318
tp319
Rp320
ag5
(g9
S'ffffff\xee\xbf'
p321
tp322
Rp323
ag5
(g9
S'{\x14\xaeG\xe1z\xd4\xbf'
p324
tp325
Rp326
ag5
(g9
S'\xaeG\xe1z\x14\xae\xd7?'
p327
tp328
Rp329
ag5
(g9
S'\x1f\x85\xebQ\xb8\x1e\xf1?'
p330
tp331
Rp332
ag5
(g9
S'\x1f\x85\xebQ\xb8\x1e\x01@'
p333
tp334
Rp335
ag5
(g9
S'H\xe1z\x14\xaeG\t@'
p336
tp337
Rp338
ag5
(g9
S'R\xb8\x1e\x85\xebQ\x10@'
p339
tp340
Rp341
ag5
(g9
S'\x1f\x85\xebQ\xb8\x1e\x14@'
p342
tp343
Rp344
ag5
(g9
S'\xcd\xcc\xcc\xcc\xcc\xcc\x17@'
p345
tp346
Rp347
ag5
(g9
S'R\xb8\x1e\x85\xebQ\x1b@'
p348
tp349
Rp350
ag5
(g9
S'\xd7\xa3p=\n\xd7\x1e@'
p351
tp352
Rp353
ag5
(g9
S'q=\n\xd7\xa3\xf0 @'
p354
tp355
Rp356
ag5
(g9
S'\x14\xaeG\xe1z\x94"@'
p357
tp358
Rp359
ag5
(g9
S'q=\n\xd7\xa3\xf0#@'
p360
tp361
Rp362
ag5
(g9
S'{\x14\xaeG\xe1\xfa$@'
p363
tp364
Rp365
ag5
(g9
S')\\\x8f\xc2\xf5\xa8%@'
p366
tp367
Rp368
ag5
(g9
S'333333&@'
p369
tp370
Rp371
ag5
(g9
S"\xecQ\xb8\x1e\x85k'@"
p372
tp373
Rp374
ag5
(g9
S')\\\x8f\xc2\xf5\xa8(@'
p375
tp376
Rp377
ag5
(g9
S'=\n\xd7\xa3p\xbd(@'
p378
tp379
Rp380
ag5
(g9
S'\xecQ\xb8\x1e\x85\xeb(@'
p381
tp382
Rp383
ag5
(g9
S'\x14\xaeG\xe1z\x14)@'
p384
tp385
Rp386
ag5
(g9
S'\xf6(\\\x8f\xc2u(@'
p387
tp388
Rp389
ag5
(g9
S')\\\x8f\xc2\xf5((@'
p390
tp391
Rp392
ag5
(g9
S'\xb8\x1e\x85\xebQ8(@'
p393
tp394
Rp395
ag5
(g9
S'q=\n\xd7\xa3p(@'
p396
tp397
Rp398
ag5
(g9
S'q=\n\xd7\xa3p(@'
p399
tp400
Rp401
ag5
(g9
S'\\\x8f\xc2\xf5(\xdc(@'
p402
tp403
Rp404
ag5
(g9
S'\xd7\xa3p=\nW)@'
p405
tp406
Rp407
ag5
(g9
S'\x00\x00\x00\x00\x00\x80)@'
p408
tp409
Rp410
ag5
(g9
S'\x9a\x99\x99\x99\x99\x99)@'
p411
tp412
Rp413
ag5
(g9
S'\x00\x00\x00\x00\x00\x80)@'
p414
tp415
Rp416
ag5
(g9
S'\xaeG\xe1z\x14.)@'
p417
tp418
Rp419
ag5
(g9
S'\xaeG\xe1z\x14\xae(@'
p420
tp421
Rp422
ag5
(g9
S'\xaeG\xe1z\x14.(@'
p423
tp424
Rp425
ag5
(g9
S'\xa4p=\n\xd7#(@'
p426
tp427
Rp428
ag5
(g9
S'\x85\xebQ\xb8\x1e\x05(@'
p429
tp430
Rp431
ag5
(g9
S'\x1f\x85\xebQ\xb8\x1e(@'
p432
tp433
Rp434
ag5
(g9
S'\x8f\xc2\xf5(\\\x0f(@'
p435
tp436
Rp437
ag5
(g9
S'H\xe1z\x14\xaeG(@'
p438
tp439
Rp440
ag5
(g9
S'\n\xd7\xa3p=\x8a(@'
p441
tp442
Rp443
ag5
(g9
S'R\xb8\x1e\x85\xeb\xd1(@'
p444
tp445
Rp446
ag5
(g9
S'\xf6(\\\x8f\xc2u)@'
p447
tp448
Rp449
ag5
(g9
S'\xe1z\x14\xaeG\xe1)@'
p450
tp451
Rp452
ag5
(g9
S'\xd7\xa3p=\n\xd7)@'
p453
tp454
Rp455
ag5
(g9
S'\xe1z\x14\xaeG\xe1)@'
p456
tp457
Rp458
ag5
(g9
S'\\\x8f\xc2\xf5(\\*@'
p459
tp460
Rp461
ag5
(g9
S'\xcd\xcc\xcc\xcc\xcc\xcc*@'
p462
tp463
Rp464
ag5
(g9
S'{\x14\xaeG\xe1\xfa+@'
p465
tp466
Rp467
ag5
(g9
S'\xc3\xf5(\\\x8fB,@'
p468
tp469
Rp470
ag5
(g9
S'\x00\x00\x00\x00\x00\x00-@'
p471
tp472
Rp473
ag5
(g9
S'\x9a\x99\x99\x99\x99\x99-@'
p474
tp475
Rp476
ag5
(g9
S'\xc3\xf5(\\\x8f\xc2-@'
p477
tp478
Rp479
ag5
(g9
S'\x1f\x85\xebQ\xb8\x1e.@'
p480
tp481
Rp482
ag5
(g9
S'33333\xb3.@'
p483
tp484
Rp485
ag5
(g9
S'\x1f\x85\xebQ\xb8\x1e/@'
p486
tp487
Rp488
ag5
(g9
S'3333330@'
p489
tp490
Rp491
ag5
(g9
S'\xb8\x1e\x85\xebQ80@'
p492
tp493
Rp494
ag5
(g9
S'q=\n\xd7\xa300@'
p495
tp496
Rp497
ag5
(g9
S'\xb8\x1e\x85\xebQ80@'
p498
tp499
Rp500
ag5
(g9
S'R\xb8\x1e\x85\xebQ0@'
p501
tp502
Rp503
ag5
(g9
S'\xf6(\\\x8f\xc2u0@'
p504
tp505
Rp506
ag5
(g9
S'\xaeG\xe1z\x14n0@'
p507
tp508
Rp509
ag5
(g9
S'\xecQ\xb8\x1e\x85k0@'
p510
tp511
Rp512
ag5
(g9
S'\\\x8f\xc2\xf5(\\0@'
p513
tp514
Rp515
ag5
(g9
S'\x00\x00\x00\x00\x00@0@'
p516
tp517
Rp518
ag5
(g9
S'\xc3\xf5(\\\x8fB0@'
p519
tp520
Rp521
ag5
(g9
S'\x14\xaeG\xe1zT0@'
p522
tp523
Rp524
ag5
(g9
S'\xcd\xcc\xcc\xcc\xccL0@'
p525
tp526
Rp527
ag5
(g9
S'=\n\xd7\xa3p}0@'
p528
tp529
Rp530
ag5
(g9
S'=\n\xd7\xa3p}0@'
p531
tp532
Rp533
ag5
(g9
S'\x14\xaeG\xe1z\x940@'
p534
tp535
Rp536
ag5
(g9
S'q=\n\xd7\xa3\xb00@'
p537
tp538
Rp539
ag5
(g9
S'\xb8\x1e\x85\xebQ\xb80@'
p540
tp541
Rp542
ag5
(g9
S'\x14\xaeG\xe1z\xd40@'
p543
tp544
Rp545
ag5
(g9
S'\xd7\xa3p=\n\xd70@'
p546
tp547
Rp548
ag5
(g9
S'q=\n\xd7\xa3\xf00@'
p549
tp550
Rp551
ag5
(g9
S'\xf6(\\\x8f\xc2\xf50@'
p552
tp553
Rp554
ag5
(g9
S')\\\x8f\xc2\xf5(1@'
p555
tp556
Rp557
ag5
(g9
S'{\x14\xaeG\xe1:1@'
p558
tp559
Rp560
ag5
(g9
S'\xb8\x1e\x85\xebQ81@'
p561
tp562
Rp563
ag5
(g9
S')\\\x8f\xc2\xf5(1@'
p564
tp565
Rp566
ag5
(g9
S'\x9a\x99\x99\x99\x99\x191@'
p567
tp568
Rp569
ag5
(g9
S'R\xb8\x1e\x85\xeb\x111@'
p570
tp571
Rp572
ag5
(g9
S'\xa4p=\n\xd7#1@'
p573
tp574
Rp575
ag5
(g9
S')\\\x8f\xc2\xf5(1@'
p576
tp577
Rp578
ag5
(g9
S'\x00\x00\x00\x00\x00@1@'
p579
tp580
Rp581
ag5
(g9
S'=\n\xd7\xa3p=1@'
p582
tp583
Rp584
ag5
(g9
S'\xc3\xf5(\\\x8fB1@'
p585
tp586
Rp587
ag5
(g9
S'\x00\x00\x00\x00\x00@1@'
p588
tp589
Rp590
ag5
(g9
S'\xb8\x1e\x85\xebQ81@'
p591
tp592
Rp593
ag5
(g9
S'\xc3\xf5(\\\x8fB1@'
p594
tp595
Rp596
asS'learning_rate_log'
p597
(lp598
F0.0001
aF0.0001
aF0.0001
aF0.0001
aF0.0001
aF0.0001
aF0.0001
aF0.0001
aF0.0001
aF0.0001
aF0.0001
aF0.0001
aF0.0001
aF0.0001
aF0.0001
aF0.0001
aF0.0001
aF0.0001
aF0.0001
aF0.0001
aF0.0001
aF0.0001
aF0.0001
aF0.0001
aF0.0001
aF0.0001
aF0.0001
aF0.0001
aF0.0001
aF0.0001
aF0.0001
aF0.0001
aF0.0001
aF0.0001
aF0.0001
aF0.0001
aF0.0001
aF0.0001
aF0.0001
aF0.0001
aF0.0001
aF0.0001
aF0.0001
aF0.0001
aF0.0001
aF0.0001
aF0.0001
aF0.0001
aF0.0001
aF0.0001
aF0.0001
aF0.0001
aF0.0001
aF0.0001
aF0.0001
aF0.0001
aF0.0001
aF0.0001
aF0.0001
aF0.0001
aF0.0001
aF0.0001
aF0.0001
aF0.0001
aF0.0001
aF0.0001
aF0.0001
aF0.0001
aF0.0001
aF0.0001
aF0.0001
aF0.0001
aF0.0001
aF0.0001
aF0.0001
aF0.0001
aF0.0001
aF0.0001
aF0.0001
aF0.0001
aF0.0001
aF0.0001
aF0.0001
aF0.0001
aF0.0001
aF0.0001
aF0.0001
aF0.0001
aF0.0001
aF0.0001
aF0.0001
aF0.0001
aF0.0001
aF0.0001
aF0.0001
aF9.9875e-05
aF9.975e-05
aF9.962500000000001e-05
aF9.95e-05
aF9.9375e-05
aF9.925e-05
aF9.912500000000001e-05
aF9.900000000000001e-05
aF9.8875e-05
aF9.875e-05
aF9.8625e-05
aF9.850000000000001e-05
aF9.8375e-05
aF9.825e-05
aF9.8125e-05
aF9.800000000000001e-05
aF9.787500000000001e-05
aF9.775e-05
aF9.7625e-05
aF9.75e-05
aF9.737500000000001e-05
aF9.725e-05
aF9.7125e-05
aF9.7e-05
aF9.687500000000001e-05
aF9.675000000000001e-05
aF9.6625e-05
aF9.65e-05
aF9.6375e-05
aF9.625000000000001e-05
aF9.6125e-05
aF9.6e-05
aF9.5875e-05
aF9.575000000000001e-05
aF9.562500000000001e-05
aF9.55e-05
aF9.5375e-05
aF9.525000000000001e-05
aF9.512500000000001e-05
aF9.5e-05
aF9.4875e-05
aF9.475e-05
aF9.462500000000001e-05
aF9.45e-05
aF9.4375e-05
aF9.425e-05
aF9.412500000000001e-05
aF9.400000000000001e-05
aF9.3875e-05
aF9.375e-05
aF9.3625e-05
aF9.350000000000001e-05
aF9.3375e-05
aF9.325e-05
aF9.3125e-05
aF9.300000000000001e-05
aF9.287500000000001e-05
aF9.275e-05
aF9.2625e-05
aF9.25e-05
aF9.237500000000001e-05
aF9.225e-05
aF9.2125e-05
aF9.2e-05
aF9.1875e-05
aF9.175000000000001e-05
aF9.1625e-05
aF9.15e-05
aF9.137500000000001e-05
aF9.125000000000001e-05
aF9.1125e-05
aF9.1e-05
aF9.0875e-05
aF9.075000000000001e-05
aF9.062500000000001e-05
aF9.05e-05
aF9.0375e-05
aF9.025e-05
aF9.012500000000001e-05
aF9e-05
aF8.9875e-05
aF8.975e-05
aF8.962500000000001e-05
aF8.950000000000001e-05
aF8.9375e-05
aF8.925e-05
aF8.912500000000001e-05
aF8.900000000000001e-05
aF8.8875e-05
aF8.875e-05
aF8.8625e-05
aF8.850000000000001e-05
aF8.837500000000001e-05
aF8.825e-05
aF8.8125e-05
aF8.8e-05
aF8.787500000000001e-05
aF8.775e-05
aF8.7625e-05
aF8.75e-05
asS'exploration_log'
p599
(lp600
F0.946
aF0.9369999999999999
aF0.9279999999999999
aF0.919
aF0.91
aF0.901
aF0.892
aF0.883
aF0.874
aF0.865
aF0.856
aF0.847
aF0.838
aF0.829
aF0.82
aF0.8109999999999999
aF0.802
aF0.7929999999999999
aF0.784
aF0.775
aF0.766
aF0.757
aF0.748
aF0.739
aF0.73
aF0.721
aF0.712
aF0.703
aF0.694
aF0.685
aF0.6759999999999999
aF0.667
aF0.6579999999999999
aF0.649
aF0.6399999999999999
aF0.631
aF0.622
aF0.613
aF0.604
aF0.595
aF0.586
aF0.577
aF0.5680000000000001
aF0.5589999999999999
aF0.55
aF0.5409999999999999
aF0.532
aF0.5229999999999999
aF0.514
aF0.5049999999999999
aF0.4959999999999999
aF0.487
aF0.478
aF0.469
aF0.45999999999999996
aF0.45099999999999996
aF0.44199999999999995
aF0.43299999999999994
aF0.42399999999999993
aF0.4149999999999999
aF0.4059999999999999
aF0.3969999999999999
aF0.3879999999999999
aF0.379
aF0.37
aF0.361
aF0.352
aF0.34299999999999997
aF0.33399999999999996
aF0.32499999999999996
aF0.31599999999999995
aF0.30699999999999994
aF0.29799999999999993
aF0.2889999999999999
aF0.2799999999999999
aF0.2709999999999999
aF0.262
aF0.253
aF0.244
aF0.235
aF0.22599999999999998
aF0.21699999999999997
aF0.20799999999999996
aF0.19899999999999995
aF0.18999999999999995
aF0.18099999999999994
aF0.17199999999999993
aF0.16299999999999992
aF0.15400000000000003
aF0.14500000000000002
aF0.136
aF0.127
aF0.118
aF0.10899999999999999
aF0.1
aF0.099775
aF0.09955
aF0.09932500000000001
aF0.09910000000000001
aF0.098875
aF0.09865
aF0.098425
aF0.09820000000000001
aF0.097975
aF0.09775
aF0.097525
aF0.09730000000000001
aF0.09707500000000001
aF0.09685
aF0.096625
aF0.0964
aF0.09617500000000001
aF0.09595000000000001
aF0.095725
aF0.0955
aF0.095275
aF0.09505000000000001
aF0.094825
aF0.0946
aF0.094375
aF0.09415000000000001
aF0.09392500000000001
aF0.0937
aF0.093475
aF0.09325
aF0.09302500000000001
aF0.09280000000000001
aF0.092575
aF0.09235
aF0.09212500000000001
aF0.09190000000000001
aF0.091675
aF0.09145
aF0.091225
aF0.091
aF0.09077500000000001
aF0.09055
aF0.090325
aF0.0901
aF0.08987500000000001
aF0.08965000000000001
aF0.089425
aF0.0892
aF0.088975
aF0.08875000000000001
aF0.088525
aF0.0883
aF0.088075
aF0.08785
aF0.08762500000000001
aF0.0874
aF0.087175
aF0.08695
aF0.08672500000000001
aF0.08650000000000001
aF0.086275
aF0.08605
aF0.085825
aF0.08560000000000001
aF0.085375
aF0.08515
aF0.084925
aF0.0847
aF0.08447500000000001
aF0.08425
aF0.084025
aF0.0838
aF0.08357500000000001
aF0.08335000000000001
aF0.083125
aF0.0829
aF0.082675
aF0.08245
aF0.082225
aF0.082
aF0.081775
aF0.08155000000000001
aF0.08132500000000001
aF0.0811
aF0.080875
aF0.08065
aF0.080425
aF0.08020000000000001
aF0.079975
aF0.07975
aF0.079525
aF0.07930000000000001
aF0.079075
aF0.07885
aF0.078625
aF0.0784
aF0.07817500000000001
aF0.07795
aF0.077725
aF0.0775
asS'best_mean_log'
p601
(lp602
F-inf
aF-inf
aF-inf
aF-inf
ag5
(g9
S')\\\x8f\xc2\xf5(4\xc0'
p603
tp604
Rp605
ag5
(g9
S'\xa4p=\n\xd7#4\xc0'
p606
tp607
Rp608
ag608
ag5
(g9
S'\x1f\x85\xebQ\xb8\x1e4\xc0'
p609
tp610
Rp611
ag5
(g9
S'\\\x8f\xc2\xf5(\x1c4\xc0'
p612
tp613
Rp614
ag5
(g9
S'\xd7\xa3p=\n\x174\xc0'
p615
tp616
Rp617
ag617
ag617
ag5
(g9
S'R\xb8\x1e\x85\xeb\x114\xc0'
p618
tp619
Rp620
ag5
(g9
S'\xcd\xcc\xcc\xcc\xcc\x0c4\xc0'
p621
tp622
Rp623
ag5
(g9
S'H\xe1z\x14\xae\x074\xc0'
p624
tp625
Rp626
ag5
(g9
S'=\n\xd7\xa3p\xfd3\xc0'
p627
tp628
Rp629
ag5
(g9
S'\x1f\x85\xebQ\xb8\xde3\xc0'
p630
tp631
Rp632
ag5
(g9
S'R\xb8\x1e\x85\xeb\xd13\xc0'
p633
tp634
Rp635
ag5
(g9
S'\x8f\xc2\xf5(\\\xcf3\xc0'
p636
tp637
Rp638
ag5
(g9
S'\x85\xebQ\xb8\x1e\xc53\xc0'
p639
tp640
Rp641
ag5
(g9
S'33333\xb33\xc0'
p642
tp643
Rp644
ag5
(g9
S'fffff\xa63\xc0'
p645
tp646
Rp647
ag5
(g9
S'\x85\xebQ\xb8\x1e\x853\xc0'
p648
tp649
Rp650
ag5
(g9
S'\xaeG\xe1z\x14n3\xc0'
p651
tp652
Rp653
ag5
(g9
S'\xa4p=\n\xd7c3\xc0'
p654
tp655
Rp656
ag5
(g9
S'\xc3\xf5(\\\x8fB3\xc0'
p657
tp658
Rp659
ag5
(g9
S')\\\x8f\xc2\xf5(3\xc0'
p660
tp661
Rp662
ag5
(g9
S'R\xb8\x1e\x85\xeb\x113\xc0'
p663
tp664
Rp665
ag5
(g9
S'\x85\xebQ\xb8\x1e\x053\xc0'
p666
tp667
Rp668
ag5
(g9
S'\xf6(\\\x8f\xc2\xf52\xc0'
p669
tp670
Rp671
ag5
(g9
S'\x14\xaeG\xe1z\xd42\xc0'
p672
tp673
Rp674
ag5
(g9
S'H\xe1z\x14\xae\xc72\xc0'
p675
tp676
Rp677
ag5
(g9
S'fffff\xa62\xc0'
p678
tp679
Rp680
ag5
(g9
S'R\xb8\x1e\x85\xeb\x912\xc0'
p681
tp682
Rp683
ag5
(g9
S'\n\xd7\xa3p=\x8a2\xc0'
p684
tp685
Rp686
ag5
(g9
S'\xb8\x1e\x85\xebQx2\xc0'
p687
tp688
Rp689
ag5
(g9
S'\xecQ\xb8\x1e\x85k2\xc0'
p690
tp691
Rp692
ag5
(g9
S'\x14\xaeG\xe1zT2\xc0'
p693
tp694
Rp695
ag5
(g9
S'\x8f\xc2\xf5(\\O2\xc0'
p696
tp697
Rp698
ag5
(g9
S'\n\xd7\xa3p=J2\xc0'
p699
tp700
Rp701
ag5
(g9
S'\x85\xebQ\xb8\x1eE2\xc0'
p702
tp703
Rp704
ag5
(g9
S'\xf6(\\\x8f\xc252\xc0'
p705
tp706
Rp707
ag5
(g9
S'\xe1z\x14\xaeG!2\xc0'
p708
tp709
Rp710
ag710
ag710
ag710
ag5
(g9
S'\x1f\x85\xebQ\xb8\x1e2\xc0'
p711
tp712
Rp713
ag713
ag5
(g9
S'\x9a\x99\x99\x99\x99\x192\xc0'
p714
tp715
Rp716
ag5
(g9
S'\x85\xebQ\xb8\x1e\x052\xc0'
p717
tp718
Rp719
ag5
(g9
S'=\n\xd7\xa3p\xfd1\xc0'
p720
tp721
Rp722
ag5
(g9
S'\xaeG\xe1z\x14\xee1\xc0'
p723
tp724
Rp725
ag5
(g9
S'\xa4p=\n\xd7\xe31\xc0'
p726
tp727
Rp728
ag5
(g9
S'=\n\xd7\xa3p\xbd1\xc0'
p729
tp730
Rp731
ag5
(g9
S'33333\xb31\xc0'
p732
tp733
Rp734
ag5
(g9
S'\x8f\xc2\xf5(\\\x8f1\xc0'
p735
tp736
Rp737
ag5
(g9
S'q=\n\xd7\xa3p1\xc0'
p738
tp739
Rp740
ag5
(g9
S'\n\xd7\xa3p=J1\xc0'
p741
tp742
Rp743
ag5
(g9
S'\xecQ\xb8\x1e\x85+1\xc0'
p744
tp745
Rp746
ag5
(g9
S'R\xb8\x1e\x85\xeb\x111\xc0'
p747
tp748
Rp749
ag5
(g9
S'=\n\xd7\xa3p\xfd0\xc0'
p750
tp751
Rp752
ag5
(g9
S'q=\n\xd7\xa3\xf00\xc0'
p753
tp754
Rp755
ag5
(g9
S'\xd7\xa3p=\n\xd70\xc0'
p756
tp757
Rp758
ag5
(g9
S'\x8f\xc2\xf5(\\\x8f0\xc0'
p759
tp760
Rp761
ag5
(g9
S'\xaeG\xe1z\x14n0\xc0'
p762
tp763
Rp764
ag5
(g9
S'\x00\x00\x00\x00\x00@0\xc0'
p765
tp766
Rp767
ag5
(g9
S'\x00\x00\x00\x00\x00\x000\xc0'
p768
tp769
Rp770
ag5
(g9
S'\xb8\x1e\x85\xebQ\xb8/\xc0'
p771
tp772
Rp773
ag5
(g9
S'\xa4p=\n\xd7\xa3/\xc0'
p774
tp775
Rp776
ag5
(g9
S'\xcd\xcc\xcc\xcc\xccL/\xc0'
p777
tp778
Rp779
ag5
(g9
S'333333/\xc0'
p780
tp781
Rp782
ag5
(g9
S'fffff\xe6.\xc0'
p783
tp784
Rp785
ag5
(g9
S'q=\n\xd7\xa3p.\xc0'
p786
tp787
Rp788
ag5
(g9
S'H\xe1z\x14\xaeG.\xc0'
p789
tp790
Rp791
ag5
(g9
S'\xb8\x1e\x85\xebQ\xb8-\xc0'
p792
tp793
Rp794
ag5
(g9
S'\xecQ\xb8\x1e\x85k-\xc0'
p795
tp796
Rp797
ag5
(g9
S'\xecQ\xb8\x1e\x85\xeb,\xc0'
p798
tp799
Rp800
ag5
(g9
S'\x8f\xc2\xf5(\\\x8f,\xc0'
p801
tp802
Rp803
ag5
(g9
S'\x9a\x99\x99\x99\x99\x19,\xc0'
p804
tp805
Rp806
ag5
(g9
S'\x14\xaeG\xe1z\x94+\xc0'
p807
tp808
Rp809
ag5
(g9
S'\x14\xaeG\xe1z\x14+\xc0'
p810
tp811
Rp812
ag5
(g9
S'{\x14\xaeG\xe1z*\xc0'
p813
tp814
Rp815
ag5
(g9
S'\xd7\xa3p=\n\xd7)\xc0'
p816
tp817
Rp818
ag5
(g9
S'\xe1z\x14\xaeGa)\xc0'
p819
tp820
Rp821
ag5
(g9
S'\xd7\xa3p=\n\xd7(\xc0'
p822
tp823
Rp824
ag5
(g9
S'\xd7\xa3p=\nW(\xc0'
p825
tp826
Rp827
ag5
(g9
S'q=\n\xd7\xa3\xf0&\xc0'
p828
tp829
Rp830
ag5
(g9
S'ffffff&\xc0'
p831
tp832
Rp833
ag5
(g9
S'33333\xb3%\xc0'
p834
tp835
Rp836
ag5
(g9
S'\x85\xebQ\xb8\x1e\x85$\xc0'
p837
tp838
Rp839
ag5
(g9
S'\xa4p=\n\xd7\xa3#\xc0'
p840
tp841
Rp842
ag5
(g9
S'R\xb8\x1e\x85\xeb\xd1"\xc0'
p843
tp844
Rp845
ag5
(g9
S'\x1f\x85\xebQ\xb8\x1e"\xc0'
p846
tp847
Rp848
ag5
(g9
S'333333!\xc0'
p849
tp850
Rp851
ag5
(g9
S'\x8f\xc2\xf5(\\\x8f\x1f\xc0'
p852
tp853
Rp854
ag5
(g9
S')\\\x8f\xc2\xf5(\x1c\xc0'
p855
tp856
Rp857
ag5
(g9
S'333333\x19\xc0'
p858
tp859
Rp860
ag5
(g9
S'\x1f\x85\xebQ\xb8\x1e\x15\xc0'
p861
tp862
Rp863
ag5
(g9
S'ffffff\x12\xc0'
p864
tp865
Rp866
ag5
(g9
S'\xa4p=\n\xd7\xa3\x0e\xc0'
p867
tp868
Rp869
ag5
(g9
S'\x8f\xc2\xf5(\\\x8f\x08\xc0'
p870
tp871
Rp872
ag5
(g9
S'\xa4p=\n\xd7\xa3\x04\xc0'
p873
tp874
Rp875
ag5
(g9
S'\xf6(\\\x8f\xc2\xf5\xfc\xbf'
p876
tp877
Rp878
ag5
(g9
S'ffffff\xee\xbf'
p879
tp880
Rp881
ag5
(g9
S'{\x14\xaeG\xe1z\xd4\xbf'
p882
tp883
Rp884
ag5
(g9
S'\xaeG\xe1z\x14\xae\xd7?'
p885
tp886
Rp887
ag5
(g9
S'\x1f\x85\xebQ\xb8\x1e\xf1?'
p888
tp889
Rp890
ag5
(g9
S'\x1f\x85\xebQ\xb8\x1e\x01@'
p891
tp892
Rp893
ag5
(g9
S'H\xe1z\x14\xaeG\t@'
p894
tp895
Rp896
ag5
(g9
S'R\xb8\x1e\x85\xebQ\x10@'
p897
tp898
Rp899
ag5
(g9
S'\x1f\x85\xebQ\xb8\x1e\x14@'
p900
tp901
Rp902
ag5
(g9
S'\xcd\xcc\xcc\xcc\xcc\xcc\x17@'
p903
tp904
Rp905
ag5
(g9
S'R\xb8\x1e\x85\xebQ\x1b@'
p906
tp907
Rp908
ag5
(g9
S'\xd7\xa3p=\n\xd7\x1e@'
p909
tp910
Rp911
ag5
(g9
S'q=\n\xd7\xa3\xf0 @'
p912
tp913
Rp914
ag5
(g9
S'\x14\xaeG\xe1z\x94"@'
p915
tp916
Rp917
ag5
(g9
S'q=\n\xd7\xa3\xf0#@'
p918
tp919
Rp920
ag5
(g9
S'{\x14\xaeG\xe1\xfa$@'
p921
tp922
Rp923
ag5
(g9
S')\\\x8f\xc2\xf5\xa8%@'
p924
tp925
Rp926
ag5
(g9
S'333333&@'
p927
tp928
Rp929
ag5
(g9
S"\xecQ\xb8\x1e\x85k'@"
p930
tp931
Rp932
ag5
(g9
S')\\\x8f\xc2\xf5\xa8(@'
p933
tp934
Rp935
ag5
(g9
S'\xecQ\xb8\x1e\x85\xeb(@'
p936
tp937
Rp938
ag938
ag5
(g9
S'\x14\xaeG\xe1z\x14)@'
p939
tp940
Rp941
ag941
ag941
ag941
ag941
ag941
ag941
ag5
(g9
S'\xd7\xa3p=\nW)@'
p942
tp943
Rp944
ag5
(g9
S'\x85\xebQ\xb8\x1e\x85)@'
p945
tp946
Rp947
ag5
(g9
S'\x9a\x99\x99\x99\x99\x99)@'
p948
tp949
Rp950
ag5
(g9
S'\x1f\x85\xebQ\xb8\x9e)@'
p951
tp952
Rp953
ag953
ag953
ag953
ag953
ag953
ag953
ag953
ag953
ag953
ag953
ag953
ag5
(g9
S'\xe1z\x14\xaeG\xe1)@'
p954
tp955
Rp956
ag956
ag956
ag5
(g9
S'\\\x8f\xc2\xf5(\\*@'
p957
tp958
Rp959
ag5
(g9
S'\xcd\xcc\xcc\xcc\xcc\xcc*@'
p960
tp961
Rp962
ag5
(g9
S'{\x14\xaeG\xe1\xfa+@'
p963
tp964
Rp965
ag5
(g9
S'\xc3\xf5(\\\x8fB,@'
p966
tp967
Rp968
ag5
(g9
S'\x00\x00\x00\x00\x00\x00-@'
p969
tp970
Rp971
ag5
(g9
S'\x9a\x99\x99\x99\x99\x99-@'
p972
tp973
Rp974
ag5
(g9
S'\\\x8f\xc2\xf5(\xdc-@'
p975
tp976
Rp977
ag5
(g9
S'\x1f\x85\xebQ\xb8\x1e.@'
p978
tp979
Rp980
ag5
(g9
S'33333\xb3.@'
p981
tp982
Rp983
ag5
(g9
S'\x1f\x85\xebQ\xb8\x1e/@'
p984
tp985
Rp986
ag5
(g9
S'3333330@'
p987
tp988
Rp989
ag5
(g9
S'H\xe1z\x14\xaeG0@'
p990
tp991
Rp992
ag992
ag992
ag5
(g9
S'R\xb8\x1e\x85\xebQ0@'
p993
tp994
Rp995
ag5
(g9
S'\xf6(\\\x8f\xc2u0@'
p996
tp997
Rp998
ag998
ag998
ag998
ag998
ag998
ag998
ag998
ag5
(g9
S'=\n\xd7\xa3p}0@'
p999
tp1000
Rp1001
ag5
(g9
S'\x00\x00\x00\x00\x00\x800@'
p1002
tp1003
Rp1004
ag5
(g9
S'\x14\xaeG\xe1z\x940@'
p1005
tp1006
Rp1007
ag5
(g9
S'\xf6(\\\x8f\xc2\xb50@'
p1008
tp1009
Rp1010
ag5
(g9
S'\xb8\x1e\x85\xebQ\xb80@'
p1011
tp1012
Rp1013
ag5
(g9
S'\x14\xaeG\xe1z\xd40@'
p1014
tp1015
Rp1016
ag5
(g9
S'\xd7\xa3p=\n\xd70@'
p1017
tp1018
Rp1019
ag5
(g9
S'q=\n\xd7\xa3\xf00@'
p1020
tp1021
Rp1022
ag5
(g9
S'\xb8\x1e\x85\xebQ\xf80@'
p1023
tp1024
Rp1025
ag5
(g9
S')\\\x8f\xc2\xf5(1@'
p1026
tp1027
Rp1028
ag5
(g9
S'{\x14\xaeG\xe1:1@'
p1029
tp1030
Rp1031
ag1031
ag1031
ag1031
ag1031
ag1031
ag1031
ag5
(g9
S'\x00\x00\x00\x00\x00@1@'
p1032
tp1033
Rp1034
ag1034
ag5
(g9
S'\xc3\xf5(\\\x8fB1@'
p1035
tp1036
Rp1037
ag1037
ag1037
ag1037
asS'episodes_log'
p1038
(lp1039
I64
aI75
aI86
aI96
aI107
aI118
aI129
aI140
aI150
aI161
aI171
aI182
aI191
aI201
aI211
aI221
aI230
aI239
aI247
aI256
aI265
aI273
aI281
aI289
aI297
aI304
aI311
aI319
aI327
aI334
aI341
aI348
aI355
aI362
aI369
aI377
aI384
aI391
aI398
aI405
aI412
aI419
aI426
aI433
aI440
aI446
aI453
aI460
aI467
aI473
aI479
aI485
aI491
aI497
aI503
aI508
aI514
aI519
aI524
aI529
aI535
aI540
aI545
aI550
aI555
aI561
aI565
aI569
aI574
aI579
aI584
aI588
aI592
aI596
aI600
aI603
aI607
aI610
aI613
aI616
aI619
aI622
aI625
aI627
aI630
aI633
aI636
aI638
aI640
aI643
aI645
aI648
aI650
aI653
aI656
aI659
aI662
aI666
aI669
aI672
aI675
aI678
aI681
aI685
aI688
aI691
aI694
aI698
aI702
aI706
aI710
aI714
aI718
aI722
aI726
aI730
aI734
aI738
aI741
aI745
aI749
aI753
aI757
aI760
aI763
aI766
aI769
aI773
aI776
aI779
aI782
aI786
aI790
aI793
aI797
aI800
aI803
aI807
aI811
aI815
aI820
aI823
aI827
aI832
aI837
aI842
aI846
aI851
aI856
aI860
aI864
aI869
aI873
aI878
aI882
aI887
aI891
aI896
aI900
aI905
aI909
aI913
aI918
aI922
aI927
aI932
aI936
aI941
aI945
aI950
aI954
aI959
aI964
aI968
aI973
aI978
aI983
aI988
aI992
aI997
aI1002
aI1008
aI1012
aI1017
aI1021
aI1025
aI1030
aI1035
aI1040
aI1045
aI1050
aI1055
aI1059
aI1064
aI1069
as.